(lp0
(idoubletalk.transac
Transaction
(dp1
S'date'
p2
I923266800
sS'lines'
p3
(lp4
(S'MyCo.Capital.PL.Income.Consulting'
F-7950.2299999999996
Nta(S'MyCo.Assets.NCA.CurAss.Creditors'
p5
F7950.2299999999996
NtasS'customer'
p6
S'MegaCorp'
p7
sS'invoiceNo'
p8
S'1998-001'
p9
sS'comment'
p10
S'Invoiced - Data Warehouse Project'
sba(idoubletalk.transac
Transaction
(dp11
g2
I923266800
sg3
(lp12
(g5
F-7950.2299999999996
Nta(S'MyCo.Assets.NCA.CurAss.Cash'
p13
F7950.2299999999996
Ntasg6
g7
sg8
g9
sg10
S'Invoice Paid - Data Warehouse Project'
sba(idoubletalk.transac
Transaction
(dp14
g2
I923353200
sg3
(lp15
(S'MyCo.Capital.PL.Income.Products.Doubletalk'
F-4500
Nta(g13
F4500
Ntasg6
S'SmallCo'
p16
sg8
S'1998-002'
p17
sg10
S'Invoiced - 10 Doubletalk Licences'
sba(idoubletalk.transac
Transaction
(dp18
g2
I923439600
sg3
(lp19
(S'MyCo.Capital.PL.Income.Products.BulkDeals'
F-100000
Nta(g5
F100000
Ntasg6
S'Price Coopers'
p20
sg8
S'1998-003'
p21
sg10
S'Invoiced - 500 Doubletalk Licences'
sba(idoubletalk.transac
Transaction
(dp22
g3
(lp23
(g5
F-100000
Nta(g13
F100000
Ntasg2
I923439600
sS'mode'
p24
S'Scheduled'
p25
sg10
S'Invoice Paid - 500 Doubletalk Licences'
sg8
g21
sg6
g20
sba(idoubletalk.transac
Transaction
(dp26
g2
I924822000
sg3
(lp27
(S'MyCo.Capital.PL.Income.Training'
F-2350
Nta(g5
F2350
Ntasg6
S'MegaCorp'
p28
sg8
S'1998-004'
p29
sg10
S'Invoiced - Python training'
sba(idoubletalk.transac
Transaction
p30
(dp31
g3
(lp32
(g5
F-2350
Nta(g13
F2350
Ntasg2
I924822000
sg24
g25
sg10
S'Invoice Paid - Python training'
sg8
g29
sg6
g28
sba.