(lp0
(idoubletalk.transac
Transaction
p1
(dp2
S'date'
p3
I915148800
sS'lines'
p4
(lp5
(S'MyCo.Assets.NCA.CurAss.Cash'
p6
I10000
Nta(S'MyCo.Capital.Shares'
p7
I-10000
NtasS'comment'
p8
S'Initial investment'
p9
sba(idoubletalk.transac
Transaction
p10
(dp11
g3
I915148800
sg4
(lp12
(S'MyCo.Capital.PL.Expenses.Rent'
I1500
Nta(S'MyCo.Assets.NCA.CurAss.Prepayments'
p13
I-1500
Ntasg8
S'Monthly Rent Accrual'
p14
sba(idoubletalk.transac
Transaction
p15
(dp16
g3
I915148800
sg4
(lp17
(g13
I4500
Nta(g6
I-4500
Ntasg8
S'Rent paid quarterly in advance'
p18
sba(idoubletalk.transac
Transaction
p19
(dp20
g3
I915148800
sg4
(lp21
(S'MyCo.Capital.PL.Expenses.Communications'
p22
F318
Nta(S'MyCo.Assets.NCA.CurLia.VATdue'
p23
F55.649999999999999
Nta(g6
F-373.65000000000003
Ntasg8
S'Phone bills'
p24
sba(idoubletalk.transac
Transaction
p25
(dp26
g3
I915148800
sg4
(lp27
(S'MyCo.Capital.PL.Expenses.Office'
p28
F400
Nta(g23
F70
Nta(g6
F-470
Ntasg8
S'General office costs'
p29
sba(idoubletalk.transac
Transaction
p30
(dp31
g3
I915235200
sg4
(lp32
(S'MyCo.Capital.PL.Expenses.Stationery'
I9
Nta(g6
I-9
Ntasg8
S'Random Expense'
p33
sba(idoubletalk.transac
Transaction
p34
(dp35
g3
I915321600
sg4
(lp36
(S'MyCo.Capital.PL.Expenses.Travel'
I43
Nta(g6
I-43
Ntasg8
g33
sba(idoubletalk.transac
Transaction
p37
(dp38
g3
I915408000
sg4
(lp39
(S'MyCo.Capital.PL.Expenses.Travel'
I73
Nta(g6
I-73
Ntasg8
g33
sba(idoubletalk.transac
Transaction
p40
(dp41
g3
I915494400
sg4
(lp42
(S'MyCo.Capital.PL.Expenses.Utilities'
I96
Nta(g6
I-96
Ntasg8
g33
sba(idoubletalk.transac
Transaction
p43
(dp44
g3
I915753600
sg4
(lp45
(S'MyCo.Capital.PL.Expenses.Travel'
I40
Nta(g6
I-40
Ntasg8
g33
sba(idoubletalk.transac
Transaction
p46
(dp47
g3
I915840000
sg4
(lp48
(S'MyCo.Capital.PL.Expenses.Stationery'
I27
Nta(g6
I-27
Ntasg8
g33
sba(idoubletalk.transac
Transaction
p49
(dp50
g3
I915840000
sg4
(lp51
(S'MyCo.Capital.PL.Expenses.Stationery'
I56
Nta(g6
I-56
Ntasg8
g33
sba(idoubletalk.transac
Transaction
p52
(dp53
g3
I915840000
sg4
(lp54
(S'MyCo.Capital.PL.Expenses.Travel'
I3
Nta(g6
I-3
Ntasg8
g33
sba(idoubletalk.transac
Transaction
p55
(dp56
g3
I915926400
sg4
(lp57
(S'MyCo.Capital.PL.Expenses.Rent'
I53
Nta(g6
I-53
Ntasg8
g33
sba(idoubletalk.transac
Transaction
p58
(dp59
g3
I916099200
sg4
(lp60
(S'MyCo.Capital.PL.Expenses.Stationery'
I77
Nta(g6
I-77
Ntasg8
g33
sba(idoubletalk.transac
Transaction
p61
(dp62
g3
I916185600
sg4
(lp63
(S'MyCo.Capital.PL.Expenses.Travel'
I99
Nta(g6
I-99
Ntasg8
g33
sba(idoubletalk.transac
Transaction
p64
(dp65
g3
I916185600
sg4
(lp66
(S'MyCo.Capital.PL.Expenses.Labour'
I39
Nta(g6
I-39
Ntasg8
g33
sba(idoubletalk.transac
Transaction
p67
(dp68
g3
I916185600
sg4
(lp69
(S'MyCo.Capital.PL.Expenses.Stationery'
I81
Nta(g6
I-81
Ntasg8
g33
sba(idoubletalk.transac
Transaction
p70
(dp71
g3
I916272000
sg4
(lp72
(S'MyCo.Capital.PL.Expenses.Rent'
I66
Nta(g6
I-66
Ntasg8
g33
sba(idoubletalk.transac
Transaction
p73
(dp74
g3
I916358400
sg4
(lp75
(S'MyCo.Capital.PL.Expenses.Rent'
I21
Nta(g6
I-21
Ntasg8
g33
sba(idoubletalk.transac
Transaction
p76
(dp77
g3
I916444800
sg4
(lp78
(S'MyCo.Capital.PL.Expenses.Travel'
I19
Nta(g6
I-19
Ntasg8
g33
sba(idoubletalk.transac
Transaction
p79
(dp80
g3
I916531200
sg4
(lp81
(S'MyCo.Capital.PL.Expenses.Rent'
I4
Nta(g6
I-4
Ntasg8
g33
sba(idoubletalk.transac
Transaction
p82
(dp83
g3
I916617600
sg4
(lp84
(S'MyCo.Assets.Fixed.Computers.OriginalCost'
p85
F8000
Nta(g23
F1400
Nta(S'MyCo.Assets.NCA.CurLia.Creditors'
p86
F-9400
Ntasg8
S'Computer Hardware./Software Investment'
p87
sba(idoubletalk.transac
Transaction
p88
(dp89
g3
I916704000
sg4
(lp90
(S'MyCo.Capital.PL.Expenses.Labour'
I76
Nta(g6
I-76
Ntasg8
g33
sba(idoubletalk.transac
Transaction
p91
(dp92
g3
I916790400
sg4
(lp93
(S'MyCo.Capital.PL.Expenses.Stationery'
I22
Nta(g6
I-22
Ntasg8
g33
sba(idoubletalk.transac
Transaction
p94
(dp95
g3
I916963200
sg4
(lp96
(S'MyCo.Capital.PL.Expenses.Stationery'
I38
Nta(g6
I-38
Ntasg8
g33
sba(idoubletalk.transac
Transaction
p97
(dp98
g3
I916963200
sg4
(lp99
(S'MyCo.Capital.PL.Expenses.Rent'
I54
Nta(g6
I-54
Ntasg8
g33
sba(idoubletalk.transac
Transaction
p100
(dp101
g3
I917222400
sg4
(lp102
(S'MyCo.Capital.PL.Expenses.Wages'
I3000
Nta(g6
I-3000
Ntasg8
S'Salary for Roger'
sba(idoubletalk.transac
Transaction
p103
(dp104
g3
I917308800
sg4
(lp105
(S'MyCo.Capital.PL.Expenses.Travel'
I80
Nta(g6
I-80
Ntasg8
g33
sba(idoubletalk.transac
Transaction
p106
(dp107
g3
I917308800
sg4
(lp108
(S'MyCo.Capital.PL.Expenses.Travel'
I49
Nta(g6
I-49
Ntasg8
g33
sba(idoubletalk.transac
Transaction
p109
(dp110
g3
I917395200
sg4
(lp111
(S'MyCo.Capital.PL.Expenses.Utilities'
I35
Nta(g6
I-35
Ntasg8
g33
sba(idoubletalk.transac
Transaction
p112
(dp113
g3
I917568000
sg4
(lp114
(S'MyCo.Capital.PL.Expenses.Labour'
I37
Nta(g6
I-37
Ntasg8
g33
sba(idoubletalk.transac
Transaction
p115
(dp116
g3
I917654400
sg4
(lp117
(S'MyCo.Capital.PL.Expenses.Rent'
I6
Nta(g6
I-6
Ntasg8
g33
sba(idoubletalk.transac
Transaction
p118
(dp119
g3
I917654400
sg4
(lp120
(S'MyCo.Capital.PL.Expenses.Utilities'
I68
Nta(g6
I-68
Ntasg8
g33
sba(idoubletalk.transac
Transaction
p121
(dp122
g3
I917740800
sg4
(lp123
(S'MyCo.Capital.PL.Income.Software'
I0
Nta(g23
F0
Nta(g6
F0
Ntasg8
S'Cash Sale - Product Sales for month'
sba(idoubletalk.transac
Transaction
p124
(dp125
g3
I917740800
sg4
(lp126
(S'MyCo.Capital.PL.Expenses.Rent'
I23
Nta(g6
I-23
Ntasg8
g33
sba(idoubletalk.transac
Transaction
p127
(dp128
g3
I917740800
sg4
(lp129
(S'MyCo.Capital.PL.Expenses.Labour'
I54
Nta(g6
I-54
Ntasg8
g33
sba(idoubletalk.transac
Transaction
p130
(dp131
g3
I917827200
sg4
(lp132
(S'MyCo.Assets.OtherLia.BankLoan'
p133
I-10000
Nta(g6
I10000
Ntasg8
S'Loan drawdown'
p134
sba(idoubletalk.transac
Transaction
p135
(dp136
g3
I917827200
sg4
(lp137
(S'MyCo.Capital.PL.Expenses.Rent'
I1500
Nta(g13
I-1500
Ntasg8
g14
sba(idoubletalk.transac
Transaction
p138
(dp139
g3
I917827200
sg4
(lp140
(g22
F311
Nta(g23
F54.424999999999997
Nta(g6
F-365.42500000000001
Ntasg8
g24
sba(idoubletalk.transac
Transaction
p141
(dp142
g3
I917827200
sg4
(lp143
(g28
F800
Nta(g23
F140
Nta(g6
F-940
Ntasg8
g29
sba(idoubletalk.transac
Transaction
p144
(dp145
g3
I917913600
sg4
(lp146
(S'MyCo.Capital.PL.Expenses.Stationery'
I64
Nta(g6
I-64
Ntasg8
g33
sba(idoubletalk.transac
Transaction
p147
(dp148
g3
I918086400
sg4
(lp149
(S'MyCo.Capital.PL.Expenses.Stationery'
I25
Nta(g6
I-25
Ntasg8
g33
sba(idoubletalk.transac
Transaction
p150
(dp151
g3
I918172800
sg4
(lp152
(S'MyCo.Capital.PL.Expenses.Travel'
I83
Nta(g6
I-83
Ntasg8
g33
sba(idoubletalk.transac
Transaction
p153
(dp154
g3
I918259200
sg4
(lp155
(S'MyCo.Capital.PL.Income.Consulting'
I-4000
Nta(g23
F-700
Nta(S'MyCo.Assets.NCA.CurAss.Debtors'
p156
F4700
Ntasg8
S'Bill raised - Consulting to 31/1/1999'
sba(idoubletalk.transac
Transaction
p157
(dp158
g3
I918259200
sg4
(lp159
(S'MyCo.Capital.PL.Expenses.Labour'
I35
Nta(g6
I-35
Ntasg8
g33
sba(idoubletalk.transac
Transaction
p160
(dp161
g3
I918259200
sg4
(lp162
(S'MyCo.Capital.PL.Expenses.Rent'
I64
Nta(g6
I-64
Ntasg8
g33
sba(idoubletalk.transac
Transaction
p163
(dp164
g3
I918345600
sg4
(lp165
(S'MyCo.Capital.PL.Expenses.Stationery'
I77
Nta(g6
I-77
Ntasg8
g33
sba(idoubletalk.transac
Transaction
p166
(dp167
g3
I918432000
sg4
(lp168
(S'MyCo.Capital.PL.Expenses.Utilities'
I49
Nta(g6
I-49
Ntasg8
g33
sba(idoubletalk.transac
Transaction
p169
(dp170
g3
I918518400
sg4
(lp171
(S'MyCo.Capital.PL.Expenses.Stationery'
I22
Nta(g6
I-22
Ntasg8
g33
sba(idoubletalk.transac
Transaction
p172
(dp173
g3
I918604800
sg4
(lp174
(S'MyCo.Capital.PL.Expenses.Contractors'
I1500
Nta(g23
F262.5
Nta(g86
F-1762.5
Ntasg8
S'Bill received - Contractor'
sba(idoubletalk.transac
Transaction
p175
(dp176
g3
I918777600
sg4
(lp177
(S'MyCo.Capital.PL.Expenses.Stationery'
I93
Nta(g6
I-93
Ntasg8
g33
sba(idoubletalk.transac
Transaction
p178
(dp179
g3
I918950400
sg4
(lp180
(S'MyCo.Capital.PL.Expenses.Rent'
I74
Nta(g6
I-74
Ntasg8
g33
sba(idoubletalk.transac
Transaction
p181
(dp182
g3
I919209600
sg4
(lp183
(g6
F-9400
Nta(g86
F9400
Ntasg8
S'Computer Hardware./Software Payment'
p184
sba(idoubletalk.transac
Transaction
p185
(dp186
g3
I919209600
sg4
(lp187
(S'MyCo.Capital.PL.Expenses.Contractors'
I1500
Nta(g23
F262.5
Nta(g86
F-1762.5
Ntasg8
S'Bill received - Contractor'
sba(idoubletalk.transac
Transaction
p188
(dp189
g3
I919209600
sg4
(lp190
(S'MyCo.Capital.PL.Expenses.Labour'
I90
Nta(g6
I-90
Ntasg8
g33
sba(idoubletalk.transac
Transaction
p191
(dp192
g3
I919209600
sg4
(lp193
(S'MyCo.Capital.PL.Expenses.Utilities'
I86
Nta(g6
I-86
Ntasg8
g33
sba(idoubletalk.transac
Transaction
p194
(dp195
g3
I919296000
sg4
(lp196
(g85
F6000
Nta(g23
F1050
Nta(g86
F-7050
Ntasg8
g87
sba(idoubletalk.transac
Transaction
p197
(dp198
g3
I919382400
sg4
(lp199
(S'MyCo.Capital.PL.Expenses.Rent'
I7
Nta(g6
I-7
Ntasg8
g33
sba(idoubletalk.transac
Transaction
p200
(dp201
g3
I919382400
sg4
(lp202
(S'MyCo.Capital.PL.Expenses.Travel'
I29
Nta(g6
I-29
Ntasg8
g33
sba(idoubletalk.transac
Transaction
p203
(dp204
g3
I919382400
sg4
(lp205
(S'MyCo.Capital.PL.Expenses.Travel'
I61
Nta(g6
I-61
Ntasg8
g33
sba(idoubletalk.transac
Transaction
p206
(dp207
g3
I919468800
sg4
(lp208
(g86
F1762.5
Nta(g6
F-1762.5
Ntasg8
S'Bill paid - Contractor'
sba(idoubletalk.transac
Transaction
p209
(dp210
g3
I919468800
sg4
(lp211
(S'MyCo.Capital.PL.Expenses.Rent'
I21
Nta(g6
I-21
Ntasg8
g33
sba(idoubletalk.transac
Transaction
p212
(dp213
g3
I919468800
sg4
(lp214
(S'MyCo.Capital.PL.Expenses.Rent'
I39
Nta(g6
I-39
Ntasg8
g33
sba(idoubletalk.transac
Transaction
p215
(dp216
g3
I919641600
sg4
(lp217
(S'MyCo.Capital.PL.Expenses.Utilities'
I7
Nta(g6
I-7
Ntasg8
g33
sba(idoubletalk.transac
Transaction
p218
(dp219
g3
I919728000
sg4
(lp220
(S'MyCo.Capital.PL.Expenses.Utilities'
I3
Nta(g6
I-3
Ntasg8
g33
sba(idoubletalk.transac
Transaction
p221
(dp222
g3
I919814400
sg4
(lp223
(S'MyCo.Capital.PL.Expenses.Contractors'
I1500
Nta(g23
F262.5
Nta(g86
F-1762.5
Ntasg8
S'Bill received - Contractor'
sba(idoubletalk.transac
Transaction
p224
(dp225
g3
I919814400
sg4
(lp226
(S'MyCo.Capital.PL.Expenses.Labour'
I30
Nta(g6
I-30
Ntasg8
g33
sba(idoubletalk.transac
Transaction
p227
(dp228
g3
I919900800
sg4
(lp229
(S'MyCo.Capital.PL.Expenses.Wages'
I3000
Nta(g6
I-3000
Ntasg8
S'Salary for Roger'
sba(idoubletalk.transac
Transaction
p230
(dp231
g3
I919900800
sg4
(lp232
(S'MyCo.Capital.PL.Expenses.Wages'
I2000
Nta(g6
I-2000
Ntasg8
S'Salary for Simon'
sba(idoubletalk.transac
Transaction
p233
(dp234
g3
I919900800
sg4
(lp235
(S'MyCo.Capital.PL.Expenses.Wages'
I1500
Nta(g6
I-1500
Ntasg8
S'Salary for Tim'
sba(idoubletalk.transac
Transaction
p236
(dp237
g3
I920073600
sg4
(lp238
(g86
F1762.5
Nta(g6
F-1762.5
Ntasg8
S'Bill paid - Contractor'
sba(idoubletalk.transac
Transaction
p239
(dp240
g3
I920246400
sg4
(lp241
(g6
F-461.44999999999999
Nta(g133
F378.12
Nta(S'MyCo.Capital.PL.Expenses.Interest'
p242
F83.329999999999998
Ntasg8
S'Loan repayment'
p243
sba(idoubletalk.transac
Transaction
p244
(dp245
g3
I920246400
sg4
(lp246
(S'MyCo.Capital.PL.Expenses.Rent'
I1500
Nta(g13
I-1500
Ntasg8
g14
sba(idoubletalk.transac
Transaction
p247
(dp248
g3
I920246400
sg4
(lp249
(g22
F362
Nta(g23
F63.349999999999994
Nta(g6
F-425.35000000000002
Ntasg8
g24
sba(idoubletalk.transac
Transaction
p250
(dp251
g3
I920246400
sg4
(lp252
(g28
F800
Nta(g23
F140
Nta(g6
F-940
Ntasg8
g29
sba(idoubletalk.transac
Transaction
p253
(dp254
g3
I920246400
sg4
(lp255
(S'MyCo.Capital.PL.Expenses.Travel'
I82
Nta(g6
I-82
Ntasg8
g33
sba(idoubletalk.transac
Transaction
p256
(dp257
g3
I920419200
sg4
(lp258
(S'MyCo.Capital.PL.Expenses.Contractors'
I1500
Nta(g23
F262.5
Nta(g86
F-1762.5
Ntasg8
S'Bill received - Contractor'
sba(idoubletalk.transac
Transaction
p259
(dp260
g3
I920419200
sg4
(lp261
(S'MyCo.Capital.PL.Income.Software'
I0
Nta(g23
F0
Nta(g6
F0
Ntasg8
S'Cash Sale - Product Sales for month'
sba(idoubletalk.transac
Transaction
p262
(dp263
g3
I920678400
sg4
(lp264
(g86
F1762.5
Nta(g6
F-1762.5
Ntasg8
S'Bill paid - Contractor'
sba(idoubletalk.transac
Transaction
p265
(dp266
g3
I920678400
sg4
(lp267
(S'MyCo.Capital.PL.Income.Consulting'
I-10400
Nta(g23
F-1819.9999999999998
Nta(g156
F12220
Ntasg8
S'Bill raised - Consulting to 3/3/1999'
sba(idoubletalk.transac
Transaction
p268
(dp269
g3
I920678400
sg4
(lp270
(S'MyCo.Capital.PL.Expenses.Travel'
I24
Nta(g6
I-24
Ntasg8
g33
sba(idoubletalk.transac
Transaction
p271
(dp272
g3
I920851200
sg4
(lp273
(S'MyCo.Capital.PL.Expenses.Rent'
I72
Nta(g6
I-72
Ntasg8
g33
sba(idoubletalk.transac
Transaction
p274
(dp275
g3
I921024000
sg4
(lp276
(S'MyCo.Capital.PL.Expenses.Contractors'
I1500
Nta(g23
F262.5
Nta(g86
F-1762.5
Ntasg8
S'Bill received - Contractor'
sba(idoubletalk.transac
Transaction
p277
(dp278
g3
I921024000
sg4
(lp279
(S'MyCo.Capital.PL.Expenses.Labour'
I6
Nta(g6
I-6
Ntasg8
g33
sba(idoubletalk.transac
Transaction
p280
(dp281
g3
I921196800
sg4
(lp282
(S'MyCo.Capital.PL.Expenses.Labour'
I14
Nta(g6
I-14
Ntasg8
g33
sba(idoubletalk.transac
Transaction
p283
(dp284
g3
I921283200
sg4
(lp285
(g86
F1762.5
Nta(g6
F-1762.5
Ntasg8
S'Bill paid - Contractor'
sba(idoubletalk.transac
Transaction
p286
(dp287
g3
I921283200
sg4
(lp288
(g156
F-4700
Nta(g6
F4700
Ntasg8
S'Payment received - Consulting to 31/1/1999'
sba(idoubletalk.transac
Transaction
p289
(dp290
g3
I921369600
sg4
(lp291
(S'MyCo.Capital.PL.Expenses.Rent'
I36
Nta(g6
I-36
Ntasg8
g33
sba(idoubletalk.transac
Transaction
p292
(dp293
g3
I921369600
sg4
(lp294
(S'MyCo.Capital.PL.Expenses.Travel'
I98
Nta(g6
I-98
Ntasg8
g33
sba(idoubletalk.transac
Transaction
p295
(dp296
g3
I921369600
sg4
(lp297
(S'MyCo.Capital.PL.Expenses.Labour'
I64
Nta(g6
I-64
Ntasg8
g33
sba(idoubletalk.transac
Transaction
p298
(dp299
g3
I921542400
sg4
(lp300
(S'MyCo.Capital.PL.Expenses.Travel'
I71
Nta(g6
I-71
Ntasg8
g33
sba(idoubletalk.transac
Transaction
p301
(dp302
g3
I921542400
sg4
(lp303
(S'MyCo.Capital.PL.Expenses.Travel'
I76
Nta(g6
I-76
Ntasg8
g33
sba(idoubletalk.transac
Transaction
p304
(dp305
g3
I921542400
sg4
(lp306
(S'MyCo.Capital.PL.Expenses.Rent'
I27
Nta(g6
I-27
Ntasg8
g33
sba(idoubletalk.transac
Transaction
p307
(dp308
g3
I921628800
sg4
(lp309
(g6
F-7050
Nta(g86
F7050
Ntasg8
g184
sba(idoubletalk.transac
Transaction
p310
(dp311
g3
I921628800
sg4
(lp312
(S'MyCo.Capital.PL.Expenses.Contractors'
I1500
Nta(g23
F262.5
Nta(g86
F-1762.5
Ntasg8
S'Bill received - Contractor'
sba(idoubletalk.transac
Transaction
p313
(dp314
g3
I921715200
sg4
(lp315
(g85
F3000
Nta(g23
F525
Nta(g86
F-3525
Ntasg8
g87
sba(idoubletalk.transac
Transaction
p316
(dp317
g3
I921801600
sg4
(lp318
(S'MyCo.Capital.PL.Expenses.Utilities'
I73
Nta(g6
I-73
Ntasg8
g33
sba(idoubletalk.transac
Transaction
p319
(dp320
g3
I921888000
sg4
(lp321
(g86
F1762.5
Nta(g6
F-1762.5
Ntasg8
S'Bill paid - Contractor'
sba.