(lp0
(idoubletalk.transac
Transaction
(dp1
S'date'
p2
I915148800
sS'lines'
p3
(lp4
(S'MyCo.Assets.NCA.CurAss.Cash'
p5
I10000
Nta(S'MyCo.Capital.Shares'
p6
I-10000
NtasS'comment'
p7
S'Initial investment'
p8
sba(idoubletalk.transac
Transaction
(dp9
g2
I915148800
sg3
(lp10
(S'MyCo.Capital.PL.Expenses.Rent'
I1500
Nta(S'MyCo.Assets.NCA.CurAss.Prepayments'
p11
I-1500
Ntasg7
S'Monthly Rent Accrual'
p12
sba(idoubletalk.transac
Transaction
(dp13
g2
I915148800
sg3
(lp14
(g11
I4500
Nta(g5
I-4500
Ntasg7
S'Rent paid quarterly in advance'
p15
sba(idoubletalk.transac
Transaction
(dp16
g2
I915148800
sg3
(lp17
(S'MyCo.Capital.PL.Expenses.Communications'
p18
F318
Nta(S'MyCo.Assets.NCA.CurLia.VATdue'
p19
F55.649999999999999
Nta(g5
F-373.65000000000003
Ntasg7
S'Phone bills'
p20
sba(idoubletalk.transac
Transaction
(dp21
g2
I915148800
sg3
(lp22
(S'MyCo.Capital.PL.Expenses.Office'
p23
F400
Nta(g19
F70
Nta(g5
F-470
Ntasg7
S'General office costs'
p24
sba(idoubletalk.transac
Transaction
(dp25
g2
I915235200
sg3
(lp26
(S'MyCo.Capital.PL.Expenses.Stationery'
I9
Nta(g5
I-9
Ntasg7
S'Random Expense'
p27
sba(idoubletalk.transac
Transaction
(dp28
g2
I915321600
sg3
(lp29
(S'MyCo.Capital.PL.Expenses.Travel'
I43
Nta(g5
I-43
Ntasg7
g27
sba(idoubletalk.transac
Transaction
(dp30
g2
I915408000
sg3
(lp31
(S'MyCo.Capital.PL.Expenses.Travel'
I73
Nta(g5
I-73
Ntasg7
g27
sba(idoubletalk.transac
Transaction
(dp32
g2
I915494400
sg3
(lp33
(S'MyCo.Capital.PL.Expenses.Utilities'
I96
Nta(g5
I-96
Ntasg7
g27
sba(idoubletalk.transac
Transaction
(dp34
g2
I915753600
sg3
(lp35
(S'MyCo.Capital.PL.Expenses.Travel'
I40
Nta(g5
I-40
Ntasg7
g27
sba(idoubletalk.transac
Transaction
(dp36
g2
I915840000
sg3
(lp37
(S'MyCo.Capital.PL.Expenses.Stationery'
I27
Nta(g5
I-27
Ntasg7
g27
sba(idoubletalk.transac
Transaction
(dp38
g2
I915840000
sg3
(lp39
(S'MyCo.Capital.PL.Expenses.Stationery'
I56
Nta(g5
I-56
Ntasg7
g27
sba(idoubletalk.transac
Transaction
(dp40
g2
I915840000
sg3
(lp41
(S'MyCo.Capital.PL.Expenses.Travel'
I3
Nta(g5
I-3
Ntasg7
g27
sba(idoubletalk.transac
Transaction
(dp42
g2
I915926400
sg3
(lp43
(S'MyCo.Capital.PL.Expenses.Rent'
I53
Nta(g5
I-53
Ntasg7
g27
sba(idoubletalk.transac
Transaction
(dp44
g2
I916099200
sg3
(lp45
(S'MyCo.Capital.PL.Expenses.Stationery'
I77
Nta(g5
I-77
Ntasg7
g27
sba(idoubletalk.transac
Transaction
(dp46
g2
I916185600
sg3
(lp47
(S'MyCo.Capital.PL.Expenses.Travel'
I99
Nta(g5
I-99
Ntasg7
g27
sba(idoubletalk.transac
Transaction
(dp48
g2
I916185600
sg3
(lp49
(S'MyCo.Capital.PL.Expenses.Labour'
I39
Nta(g5
I-39
Ntasg7
g27
sba(idoubletalk.transac
Transaction
(dp50
g2
I916185600
sg3
(lp51
(S'MyCo.Capital.PL.Expenses.Stationery'
I81
Nta(g5
I-81
Ntasg7
g27
sba(idoubletalk.transac
Transaction
(dp52
g2
I916272000
sg3
(lp53
(S'MyCo.Capital.PL.Expenses.Rent'
I66
Nta(g5
I-66
Ntasg7
g27
sba(idoubletalk.transac
Transaction
(dp54
g2
I916358400
sg3
(lp55
(S'MyCo.Capital.PL.Expenses.Rent'
I21
Nta(g5
I-21
Ntasg7
g27
sba(idoubletalk.transac
Transaction
(dp56
g2
I916444800
sg3
(lp57
(S'MyCo.Capital.PL.Expenses.Travel'
I19
Nta(g5
I-19
Ntasg7
g27
sba(idoubletalk.transac
Transaction
(dp58
g2
I916531200
sg3
(lp59
(S'MyCo.Capital.PL.Expenses.Rent'
I4
Nta(g5
I-4
Ntasg7
g27
sba(idoubletalk.transac
Transaction
(dp60
g2
I916617600
sg3
(lp61
(S'MyCo.Assets.Fixed.Computers.OriginalCost'
p62
F8000
Nta(g19
F1400
Nta(S'MyCo.Assets.NCA.CurLia.Creditors'
p63
F-9400
Ntasg7
S'Computer Hardware./Software Investment'
p64
sba(idoubletalk.transac
Transaction
(dp65
g2
I916704000
sg3
(lp66
(S'MyCo.Capital.PL.Expenses.Labour'
I76
Nta(g5
I-76
Ntasg7
g27
sba(idoubletalk.transac
Transaction
(dp67
g2
I916790400
sg3
(lp68
(S'MyCo.Capital.PL.Expenses.Stationery'
I22
Nta(g5
I-22
Ntasg7
g27
sba(idoubletalk.transac
Transaction
(dp69
g2
I916963200
sg3
(lp70
(S'MyCo.Capital.PL.Expenses.Stationery'
I38
Nta(g5
I-38
Ntasg7
g27
sba(idoubletalk.transac
Transaction
(dp71
g2
I916963200
sg3
(lp72
(S'MyCo.Capital.PL.Expenses.Rent'
I54
Nta(g5
I-54
Ntasg7
g27
sba(idoubletalk.transac
Transaction
(dp73
g2
I917222400
sg3
(lp74
(S'MyCo.Capital.PL.Expenses.Wages'
I3000
Nta(g5
I-3000
Ntasg7
S'Salary for Roger'
sba(idoubletalk.transac
Transaction
(dp75
g2
I917308800
sg3
(lp76
(S'MyCo.Capital.PL.Expenses.Travel'
I80
Nta(g5
I-80
Ntasg7
g27
sba(idoubletalk.transac
Transaction
(dp77
g2
I917308800
sg3
(lp78
(S'MyCo.Capital.PL.Expenses.Travel'
I49
Nta(g5
I-49
Ntasg7
g27
sba(idoubletalk.transac
Transaction
(dp79
g2
I917395200
sg3
(lp80
(S'MyCo.Capital.PL.Expenses.Utilities'
I35
Nta(g5
I-35
Ntasg7
g27
sba(idoubletalk.transac
Transaction
(dp81
g2
I917568000
sg3
(lp82
(S'MyCo.Capital.PL.Expenses.Labour'
I37
Nta(g5
I-37
Ntasg7
g27
sba(idoubletalk.transac
Transaction
(dp83
g2
I917654400
sg3
(lp84
(S'MyCo.Capital.PL.Expenses.Rent'
I6
Nta(g5
I-6
Ntasg7
g27
sba(idoubletalk.transac
Transaction
(dp85
g2
I917654400
sg3
(lp86
(S'MyCo.Capital.PL.Expenses.Utilities'
I68
Nta(g5
I-68
Ntasg7
g27
sba(idoubletalk.transac
Transaction
(dp87
g2
I917740800
sg3
(lp88
(S'MyCo.Capital.PL.Income.Software'
I0
Nta(g19
F0
Nta(g5
F0
Ntasg7
S'Cash Sale - Product Sales for month'
sba(idoubletalk.transac
Transaction
(dp89
g2
I917740800
sg3
(lp90
(S'MyCo.Capital.PL.Expenses.Rent'
I23
Nta(g5
I-23
Ntasg7
g27
sba(idoubletalk.transac
Transaction
(dp91
g2
I917740800
sg3
(lp92
(S'MyCo.Capital.PL.Expenses.Labour'
I54
Nta(g5
I-54
Ntasg7
g27
sba(idoubletalk.transac
Transaction
(dp93
g2
I917827200
sg3
(lp94
(S'MyCo.Assets.OtherLia.BankLoan'
p95
I-10000
Nta(g5
I10000
Ntasg7
S'Loan drawdown'
p96
sba(idoubletalk.transac
Transaction
(dp97
g2
I917827200
sg3
(lp98
(S'MyCo.Capital.PL.Expenses.Rent'
I1500
Nta(g11
I-1500
Ntasg7
g12
sba(idoubletalk.transac
Transaction
(dp99
g2
I917827200
sg3
(lp100
(g18
F311
Nta(g19
F54.424999999999997
Nta(g5
F-365.42500000000001
Ntasg7
g20
sba(idoubletalk.transac
Transaction
(dp101
g2
I917827200
sg3
(lp102
(g23
F800
Nta(g19
F140
Nta(g5
F-940
Ntasg7
g24
sba(idoubletalk.transac
Transaction
(dp103
g2
I917913600
sg3
(lp104
(S'MyCo.Capital.PL.Expenses.Stationery'
I64
Nta(g5
I-64
Ntasg7
g27
sba(idoubletalk.transac
Transaction
(dp105
g2
I918086400
sg3
(lp106
(S'MyCo.Capital.PL.Expenses.Stationery'
I25
Nta(g5
I-25
Ntasg7
g27
sba(idoubletalk.transac
Transaction
(dp107
g2
I918172800
sg3
(lp108
(S'MyCo.Capital.PL.Expenses.Travel'
I83
Nta(g5
I-83
Ntasg7
g27
sba(idoubletalk.transac
Transaction
(dp109
g2
I918259200
sg3
(lp110
(S'MyCo.Capital.PL.Income.Consulting'
I-4000
Nta(g19
F-700
Nta(S'MyCo.Assets.NCA.CurAss.Debtors'
p111
F4700
Ntasg7
S'Bill raised - Consulting to 31/1/1999'
sba(idoubletalk.transac
Transaction
(dp112
g2
I918259200
sg3
(lp113
(S'MyCo.Capital.PL.Expenses.Labour'
I35
Nta(g5
I-35
Ntasg7
g27
sba(idoubletalk.transac
Transaction
(dp114
g2
I918259200
sg3
(lp115
(S'MyCo.Capital.PL.Expenses.Rent'
I64
Nta(g5
I-64
Ntasg7
g27
sba(idoubletalk.transac
Transaction
(dp116
g2
I918345600
sg3
(lp117
(S'MyCo.Capital.PL.Expenses.Stationery'
I77
Nta(g5
I-77
Ntasg7
g27
sba(idoubletalk.transac
Transaction
(dp118
g2
I918432000
sg3
(lp119
(S'MyCo.Capital.PL.Expenses.Utilities'
I49
Nta(g5
I-49
Ntasg7
g27
sba(idoubletalk.transac
Transaction
(dp120
g2
I918518400
sg3
(lp121
(S'MyCo.Capital.PL.Expenses.Stationery'
I22
Nta(g5
I-22
Ntasg7
g27
sba(idoubletalk.transac
Transaction
(dp122
g2
I918604800
sg3
(lp123
(S'MyCo.Capital.PL.Expenses.Contractors'
I1500
Nta(g19
F262.5
Nta(g63
F-1762.5
Ntasg7
S'Bill received - Contractor'
sba(idoubletalk.transac
Transaction
(dp124
g2
I918777600
sg3
(lp125
(S'MyCo.Capital.PL.Expenses.Stationery'
I93
Nta(g5
I-93
Ntasg7
g27
sba(idoubletalk.transac
Transaction
(dp126
g2
I918950400
sg3
(lp127
(S'MyCo.Capital.PL.Expenses.Rent'
I74
Nta(g5
I-74
Ntasg7
g27
sba(idoubletalk.transac
Transaction
(dp128
g2
I919209600
sg3
(lp129
(g5
F-9400
Nta(g63
F9400
Ntasg7
S'Computer Hardware./Software Payment'
p130
sba(idoubletalk.transac
Transaction
(dp131
g2
I919209600
sg3
(lp132
(S'MyCo.Capital.PL.Expenses.Contractors'
I1500
Nta(g19
F262.5
Nta(g63
F-1762.5
Ntasg7
S'Bill received - Contractor'
sba(idoubletalk.transac
Transaction
(dp133
g2
I919209600
sg3
(lp134
(S'MyCo.Capital.PL.Expenses.Labour'
I90
Nta(g5
I-90
Ntasg7
g27
sba(idoubletalk.transac
Transaction
(dp135
g2
I919209600
sg3
(lp136
(S'MyCo.Capital.PL.Expenses.Utilities'
I86
Nta(g5
I-86
Ntasg7
g27
sba(idoubletalk.transac
Transaction
(dp137
g2
I919296000
sg3
(lp138
(g62
F6000
Nta(g19
F1050
Nta(g63
F-7050
Ntasg7
g64
sba(idoubletalk.transac
Transaction
(dp139
g2
I919382400
sg3
(lp140
(S'MyCo.Capital.PL.Expenses.Rent'
I7
Nta(g5
I-7
Ntasg7
g27
sba(idoubletalk.transac
Transaction
(dp141
g2
I919382400
sg3
(lp142
(S'MyCo.Capital.PL.Expenses.Travel'
I29
Nta(g5
I-29
Ntasg7
g27
sba(idoubletalk.transac
Transaction
(dp143
g2
I919382400
sg3
(lp144
(S'MyCo.Capital.PL.Expenses.Travel'
I61
Nta(g5
I-61
Ntasg7
g27
sba(idoubletalk.transac
Transaction
(dp145
g2
I919468800
sg3
(lp146
(g63
F1762.5
Nta(g5
F-1762.5
Ntasg7
S'Bill paid - Contractor'
sba(idoubletalk.transac
Transaction
(dp147
g2
I919468800
sg3
(lp148
(S'MyCo.Capital.PL.Expenses.Rent'
I21
Nta(g5
I-21
Ntasg7
g27
sba(idoubletalk.transac
Transaction
(dp149
g2
I919468800
sg3
(lp150
(S'MyCo.Capital.PL.Expenses.Rent'
I39
Nta(g5
I-39
Ntasg7
g27
sba(idoubletalk.transac
Transaction
(dp151
g2
I919641600
sg3
(lp152
(S'MyCo.Capital.PL.Expenses.Utilities'
I7
Nta(g5
I-7
Ntasg7
g27
sba(idoubletalk.transac
Transaction
(dp153
g2
I919728000
sg3
(lp154
(S'MyCo.Capital.PL.Expenses.Utilities'
I3
Nta(g5
I-3
Ntasg7
g27
sba(idoubletalk.transac
Transaction
(dp155
g2
I919814400
sg3
(lp156
(S'MyCo.Capital.PL.Expenses.Contractors'
I1500
Nta(g19
F262.5
Nta(g63
F-1762.5
Ntasg7
S'Bill received - Contractor'
sba(idoubletalk.transac
Transaction
(dp157
g2
I919814400
sg3
(lp158
(S'MyCo.Capital.PL.Expenses.Labour'
I30
Nta(g5
I-30
Ntasg7
g27
sba(idoubletalk.transac
Transaction
(dp159
g2
I919900800
sg3
(lp160
(S'MyCo.Capital.PL.Expenses.Wages'
I3000
Nta(g5
I-3000
Ntasg7
S'Salary for Roger'
sba(idoubletalk.transac
Transaction
(dp161
g2
I919900800
sg3
(lp162
(S'MyCo.Capital.PL.Expenses.Wages'
I2000
Nta(g5
I-2000
Ntasg7
S'Salary for Simon'
sba(idoubletalk.transac
Transaction
(dp163
g2
I919900800
sg3
(lp164
(S'MyCo.Capital.PL.Expenses.Wages'
I1500
Nta(g5
I-1500
Ntasg7
S'Salary for Tim'
sba(idoubletalk.transac
Transaction
(dp165
g2
I920073600
sg3
(lp166
(g63
F1762.5
Nta(g5
F-1762.5
Ntasg7
S'Bill paid - Contractor'
sba(idoubletalk.transac
Transaction
(dp167
g2
I920246400
sg3
(lp168
(g5
F-461.44999999999999
Nta(g95
F378.12
Nta(S'MyCo.Capital.PL.Expenses.Interest'
p169
F83.329999999999998
Ntasg7
S'Loan repayment'
p170
sba(idoubletalk.transac
Transaction
(dp171
g2
I920246400
sg3
(lp172
(S'MyCo.Capital.PL.Expenses.Rent'
I1500
Nta(g11
I-1500
Ntasg7
g12
sba(idoubletalk.transac
Transaction
(dp173
g2
I920246400
sg3
(lp174
(g18
F362
Nta(g19
F63.349999999999994
Nta(g5
F-425.35000000000002
Ntasg7
g20
sba(idoubletalk.transac
Transaction
(dp175
g2
I920246400
sg3
(lp176
(g23
F800
Nta(g19
F140
Nta(g5
F-940
Ntasg7
g24
sba(idoubletalk.transac
Transaction
(dp177
g2
I920246400
sg3
(lp178
(S'MyCo.Capital.PL.Expenses.Travel'
I82
Nta(g5
I-82
Ntasg7
g27
sba(idoubletalk.transac
Transaction
(dp179
g2
I920419200
sg3
(lp180
(S'MyCo.Capital.PL.Expenses.Contractors'
I1500
Nta(g19
F262.5
Nta(g63
F-1762.5
Ntasg7
S'Bill received - Contractor'
sba(idoubletalk.transac
Transaction
(dp181
g2
I920419200
sg3
(lp182
(S'MyCo.Capital.PL.Income.Software'
I0
Nta(g19
F0
Nta(g5
F0
Ntasg7
S'Cash Sale - Product Sales for month'
sba(idoubletalk.transac
Transaction
(dp183
g2
I920678400
sg3
(lp184
(g63
F1762.5
Nta(g5
F-1762.5
Ntasg7
S'Bill paid - Contractor'
sba(idoubletalk.transac
Transaction
(dp185
g2
I920678400
sg3
(lp186
(S'MyCo.Capital.PL.Income.Consulting'
I-10400
Nta(g19
F-1819.9999999999998
Nta(g111
F12220
Ntasg7
S'Bill raised - Consulting to 3/3/1999'
sba(idoubletalk.transac
Transaction
(dp187
g2
I920678400
sg3
(lp188
(S'MyCo.Capital.PL.Expenses.Travel'
I24
Nta(g5
I-24
Ntasg7
g27
sba(idoubletalk.transac
Transaction
(dp189
g2
I920851200
sg3
(lp190
(S'MyCo.Capital.PL.Expenses.Rent'
I72
Nta(g5
I-72
Ntasg7
g27
sba(idoubletalk.transac
Transaction
(dp191
g2
I921024000
sg3
(lp192
(S'MyCo.Capital.PL.Expenses.Contractors'
I1500
Nta(g19
F262.5
Nta(g63
F-1762.5
Ntasg7
S'Bill received - Contractor'
sba(idoubletalk.transac
Transaction
(dp193
g2
I921024000
sg3
(lp194
(S'MyCo.Capital.PL.Expenses.Labour'
I6
Nta(g5
I-6
Ntasg7
g27
sba(idoubletalk.transac
Transaction
(dp195
g2
I921196800
sg3
(lp196
(S'MyCo.Capital.PL.Expenses.Labour'
I14
Nta(g5
I-14
Ntasg7
g27
sba(idoubletalk.transac
Transaction
(dp197
g2
I921283200
sg3
(lp198
(g63
F1762.5
Nta(g5
F-1762.5
Ntasg7
S'Bill paid - Contractor'
sba(idoubletalk.transac
Transaction
(dp199
g2
I921283200
sg3
(lp200
(g111
F-4700
Nta(g5
F4700
Ntasg7
S'Payment received - Consulting to 31/1/1999'
sba(idoubletalk.transac
Transaction
(dp201
g2
I921369600
sg3
(lp202
(S'MyCo.Capital.PL.Expenses.Rent'
I36
Nta(g5
I-36
Ntasg7
g27
sba(idoubletalk.transac
Transaction
(dp203
g2
I921369600
sg3
(lp204
(S'MyCo.Capital.PL.Expenses.Travel'
I98
Nta(g5
I-98
Ntasg7
g27
sba(idoubletalk.transac
Transaction
(dp205
g2
I921369600
sg3
(lp206
(S'MyCo.Capital.PL.Expenses.Labour'
I64
Nta(g5
I-64
Ntasg7
g27
sba(idoubletalk.transac
Transaction
(dp207
g2
I921542400
sg3
(lp208
(S'MyCo.Capital.PL.Expenses.Travel'
I71
Nta(g5
I-71
Ntasg7
g27
sba(idoubletalk.transac
Transaction
(dp209
g2
I921542400
sg3
(lp210
(S'MyCo.Capital.PL.Expenses.Travel'
I76
Nta(g5
I-76
Ntasg7
g27
sba(idoubletalk.transac
Transaction
(dp211
g2
I921542400
sg3
(lp212
(S'MyCo.Capital.PL.Expenses.Rent'
I27
Nta(g5
I-27
Ntasg7
g27
sba(idoubletalk.transac
Transaction
(dp213
g2
I921628800
sg3
(lp214
(g5
F-7050
Nta(g63
F7050
Ntasg7
g130
sba(idoubletalk.transac
Transaction
(dp215
g2
I921628800
sg3
(lp216
(S'MyCo.Capital.PL.Expenses.Contractors'
I1500
Nta(g19
F262.5
Nta(g63
F-1762.5
Ntasg7
S'Bill received - Contractor'
sba(idoubletalk.transac
Transaction
(dp217
g2
I921715200
sg3
(lp218
(g62
F3000
Nta(g19
F525
Nta(g63
F-3525
Ntasg7
g64
sba(idoubletalk.transac
Transaction
(dp219
g2
I921801600
sg3
(lp220
(S'MyCo.Capital.PL.Expenses.Utilities'
I73
Nta(g5
I-73
Ntasg7
g27
sba(idoubletalk.transac
Transaction
(dp221
g2
I921888000
sg3
(lp222
(g63
F1762.5
Nta(g5
F-1762.5
Ntasg7
S'Bill paid - Contractor'
sba(idoubletalk.transac
Transaction
(dp223
g2
I921888000
sg3
(lp224
(S'MyCo.Capital.PL.Expenses.Labour'
I61
Nta(g5
I-61
Ntasg7
g27
sba(idoubletalk.transac
Transaction
(dp225
g2
I921888000
sg3
(lp226
(S'MyCo.Capital.PL.Expenses.Utilities'
I19
Nta(g5
I-19
Ntasg7
g27
sba(idoubletalk.transac
Transaction
(dp227
g2
I921974400
sg3
(lp228
(S'MyCo.Capital.PL.Expenses.Stationery'
I59
Nta(g5
I-59
Ntasg7
g27
sba(idoubletalk.transac
Transaction
(dp229
g2
I921974400
sg3
(lp230
(S'MyCo.Capital.PL.Expenses.Stationery'
I50
Nta(g5
I-50
Ntasg7
g27
sba(idoubletalk.transac
Transaction
(dp231
g2
I922233600
sg3
(lp232
(S'MyCo.Capital.PL.Expenses.Contractors'
I1500
Nta(g19
F262.5
Nta(g63
F-1762.5
Ntasg7
S'Bill received - Contractor'
sba(idoubletalk.transac
Transaction
(dp233
g2
I922320000
sg3
(lp234
(S'MyCo.Capital.PL.Expenses.Wages'
I3000
Nta(g5
I-3000
Ntasg7
S'Salary for Roger'
sba(idoubletalk.transac
Transaction
(dp235
g2
I922320000
sg3
(lp236
(S'MyCo.Capital.PL.Expenses.Wages'
I2000
Nta(g5
I-2000
Ntasg7
S'Salary for Simon'
sba(idoubletalk.transac
Transaction
(dp237
g2
I922320000
sg3
(lp238
(S'MyCo.Capital.PL.Expenses.Wages'
I1500
Nta(g5
I-1500
Ntasg7
S'Salary for Tim'
sba(idoubletalk.transac
Transaction
(dp239
g2
I922492800
sg3
(lp240
(g63
F1762.5
Nta(g5
F-1762.5
Ntasg7
S'Bill paid - Contractor'
sba(idoubletalk.transac
Transaction
(dp241
g2
I922579200
sg3
(lp242
(S'MyCo.Capital.PL.Expenses.Travel'
I43
Nta(g5
I-43
Ntasg7
g27
sba(idoubletalk.transac
Transaction
(dp243
g2
I922752000
sg3
(lp244
(S'MyCo.Capital.PL.Expenses.Utilities'
I7
Nta(g5
I-7
Ntasg7
g27
sba(idoubletalk.transac
Transaction
(dp245
g2
I922752000
sg3
(lp246
(S'MyCo.Capital.PL.Expenses.Stationery'
I86
Nta(g5
I-86
Ntasg7
g27
sba(idoubletalk.transac
Transaction
(dp247
g2
I922838400
sg3
(lp248
(S'MyCo.Capital.PL.Expenses.Contractors'
I1500
Nta(g19
F262.5
Nta(g63
F-1762.5
Ntasg7
S'Bill received - Contractor'
sba(idoubletalk.transac
Transaction
(dp249
g2
I922838400
sg3
(lp250
(S'MyCo.Capital.PL.Expenses.Rent'
I24
Nta(g5
I-24
Ntasg7
g27
sba(idoubletalk.transac
Transaction
(dp251
g2
I922924800
sg3
(lp252
(g5
F-461.44999999999999
Nta(g95
F381.26999999999998
Nta(g169
F80.180000000000007
Ntasg7
g170
sba(idoubletalk.transac
Transaction
(dp253
g2
I922924800
sg3
(lp254
(S'MyCo.Capital.PL.Expenses.Rent'
I1500
Nta(g11
I-1500
Ntasg7
g12
sba(idoubletalk.transac
Transaction
(dp255
g2
I922924800
sg3
(lp256
(g11
I4500
Nta(g5
I-4500
Ntasg7
g15
sba(idoubletalk.transac
Transaction
(dp257
g2
I922924800
sg3
(lp258
(g18
F411
Nta(g19
F71.924999999999997
Nta(g5
F-482.92500000000001
Ntasg7
g20
sba(idoubletalk.transac
Transaction
(dp259
g2
I922924800
sg3
(lp260
(g23
F1000
Nta(g19
F175
Nta(g5
F-1175
Ntasg7
g24
sba(idoubletalk.transac
Transaction
(dp261
g2
I922924800
sg3
(lp262
(S'MyCo.Capital.PL.Expenses.Labour'
I28
Nta(g5
I-28
Ntasg7
g27
sba(idoubletalk.transac
Transaction
(dp263
g2
I922924800
sg3
(lp264
(S'MyCo.Capital.PL.Expenses.Travel'
I45
Nta(g5
I-45
Ntasg7
g27
sba(idoubletalk.transac
Transaction
(dp265
g2
I923011200
sg3
(lp266
(S'MyCo.Capital.PL.Expenses.Rent'
I71
Nta(g5
I-71
Ntasg7
g27
sba(idoubletalk.transac
Transaction
(dp267
g2
I923011200
sg3
(lp268
(S'MyCo.Capital.PL.Expenses.Rent'
I6
Nta(g5
I-6
Ntasg7
g27
sba(idoubletalk.transac
Transaction
(dp269
g2
I923097600
sg3
(lp270
(g63
F1762.5
Nta(g5
F-1762.5
Ntasg7
S'Bill paid - Contractor'
sba(idoubletalk.transac
Transaction
(dp271
g2
I923097600
sg3
(lp272
(S'MyCo.Capital.PL.Income.Software'
I0
Nta(g19
F0
Nta(g5
F0
Ntasg7
S'Cash Sale - Product Sales for month'
sba(idoubletalk.transac
Transaction
(dp273
g2
I923356800
sg3
(lp274
(S'MyCo.Capital.PL.Income.Consulting'
I-11200
Nta(g19
F-1959.9999999999998
Nta(g111
F13160
Ntasg7
S'Bill raised - Consulting to 3/4/1999'
sba(idoubletalk.transac
Transaction
(dp275
g2
I923356800
sg3
(lp276
(S'MyCo.Capital.PL.Expenses.Utilities'
I7
Nta(g5
I-7
Ntasg7
g27
sba(idoubletalk.transac
Transaction
(dp277
g2
I923443200
sg3
(lp278
(S'MyCo.Capital.PL.Expenses.Contractors'
I1500
Nta(g19
F262.5
Nta(g63
F-1762.5
Ntasg7
S'Bill received - Contractor'
sba(idoubletalk.transac
Transaction
(dp279
g2
I923443200
sg3
(lp280
(S'MyCo.Capital.PL.Expenses.Utilities'
I54
Nta(g5
I-54
Ntasg7
g27
sba(idoubletalk.transac
Transaction
(dp281
g2
I923616000
sg3
(lp282
(S'MyCo.Capital.PL.Expenses.Utilities'
I51
Nta(g5
I-51
Ntasg7
g27
sba(idoubletalk.transac
Transaction
(dp283
g2
I923702400
sg3
(lp284
(g63
F1762.5
Nta(g5
F-1762.5
Ntasg7
S'Bill paid - Contractor'
sba(idoubletalk.transac
Transaction
(dp285
g2
I923702400
sg3
(lp286
(g111
F-12220
Nta(g5
F12220
Ntasg7
S'Payment received - Consulting to 3/3/1999'
sba(idoubletalk.transac
Transaction
(dp287
g2
I924048000
sg3
(lp288
(S'MyCo.Capital.PL.Expenses.Contractors'
I1500
Nta(g19
F262.5
Nta(g63
F-1762.5
Ntasg7
S'Bill received - Contractor'
sba(idoubletalk.transac
Transaction
(dp289
g2
I924307200
sg3
(lp290
(g5
F-3525
Nta(g63
F3525
Ntasg7
g130
sba(idoubletalk.transac
Transaction
(dp291
g2
I924307200
sg3
(lp292
(g63
F1762.5
Nta(g5
F-1762.5
Ntasg7
S'Bill paid - Contractor'
sba(idoubletalk.transac
Transaction
(dp293
g2
I924393600
sg3
(lp294
(g62
F3000
Nta(g19
F525
Nta(g63
F-3525
Ntasg7
g64
sba(idoubletalk.transac
Transaction
(dp295
g2
I924393600
sg3
(lp296
(S'MyCo.Capital.PL.Expenses.Travel'
I76
Nta(g5
I-76
Ntasg7
g27
sba(idoubletalk.transac
Transaction
(dp297
g2
I924566400
sg3
(lp298
(S'MyCo.Capital.PL.Expenses.Rent'
I31
Nta(g5
I-31
Ntasg7
g27
sba(idoubletalk.transac
Transaction
(dp299
g2
I924652800
sg3
(lp300
(S'MyCo.Capital.PL.Expenses.Contractors'
I1500
Nta(g19
F262.5
Nta(g63
F-1762.5
Ntasg7
S'Bill received - Contractor'
sba(idoubletalk.transac
Transaction
(dp301
g2
I924825600
sg3
(lp302
(S'MyCo.Capital.PL.Expenses.Stationery'
I30
Nta(g5
I-30
Ntasg7
g27
sba(idoubletalk.transac
Transaction
(dp303
g2
I924825600
sg3
(lp304
(S'MyCo.Capital.PL.Expenses.Utilities'
I45
Nta(g5
I-45
Ntasg7
g27
sba(idoubletalk.transac
Transaction
(dp305
g2
I924912000
sg3
(lp306
(g63
F1762.5
Nta(g5
F-1762.5
Ntasg7
S'Bill paid - Contractor'
sba(idoubletalk.transac
Transaction
(dp307
g2
I924998400
sg3
(lp308
(S'MyCo.Capital.PL.Expenses.Wages'
I3000
Nta(g5
I-3000
Ntasg7
S'Salary for Roger'
sba(idoubletalk.transac
Transaction
(dp309
g2
I924998400
sg3
(lp310
(S'MyCo.Capital.PL.Expenses.Wages'
I2000
Nta(g5
I-2000
Ntasg7
S'Salary for Simon'
sba(idoubletalk.transac
Transaction
(dp311
g2
I924998400
sg3
(lp312
(S'MyCo.Capital.PL.Expenses.Wages'
I1500
Nta(g5
I-1500
Ntasg7
S'Salary for Tim'
sba(idoubletalk.transac
Transaction
(dp313
g2
I924998400
sg3
(lp314
(S'MyCo.Capital.PL.Expenses.Wages'
I3000
Nta(g5
I-3000
Ntasg7
S'Salary for Andy'
sba(idoubletalk.transac
Transaction
(dp315
g2
I925257600
sg3
(lp316
(S'MyCo.Capital.PL.Expenses.Contractors'
I1500
Nta(g19
F262.5
Nta(g63
F-1762.5
Ntasg7
S'Bill received - Contractor'
sba(idoubletalk.transac
Transaction
(dp317
g2
I925257600
sg3
(lp318
(S'MyCo.Capital.PL.Expenses.Travel'
I19
Nta(g5
I-19
Ntasg7
g27
sba(idoubletalk.transac
Transaction
(dp319
g2
I925257600
sg3
(lp320
(S'MyCo.Capital.PL.Expenses.Travel'
I24
Nta(g5
I-24
Ntasg7
g27
sba(idoubletalk.transac
Transaction
(dp321
g2
I925344000
sg3
(lp322
(S'MyCo.Capital.PL.Expenses.Labour'
I5
Nta(g5
I-5
Ntasg7
g27
sba(idoubletalk.transac
Transaction
(dp323
g2
I925516800
sg3
(lp324
(g5
F-461.44999999999999
Nta(g95
F384.44999999999999
Nta(g169
F77
Ntasg7
g170
sba(idoubletalk.transac
Transaction
(dp325
g2
I925516800
sg3
(lp326
(S'MyCo.Capital.PL.Expenses.Rent'
I1500
Nta(g11
I-1500
Ntasg7
g12
sba(idoubletalk.transac
Transaction
(dp327
g2
I925516800
sg3
(lp328
(g18
F348
Nta(g19
F60.899999999999999
Nta(g5
F-408.90000000000003
Ntasg7
g20
sba(idoubletalk.transac
Transaction
(dp329
g2
I925516800
sg3
(lp330
(g23
F1000
Nta(g19
F175
Nta(g5
F-1175
Ntasg7
g24
sba(idoubletalk.transac
Transaction
(dp331
g2
I925516800
sg3
(lp332
(g63
F1762.5
Nta(g5
F-1762.5
Ntasg7
S'Bill paid - Contractor'
sba(idoubletalk.transac
Transaction
(dp333
g2
I925516800
sg3
(lp334
(S'MyCo.Capital.PL.Expenses.Utilities'
I75
Nta(g5
I-75
Ntasg7
g27
sba(idoubletalk.transac
Transaction
(dp335
g2
I925516800
sg3
(lp336
(S'MyCo.Capital.PL.Expenses.Rent'
I82
Nta(g5
I-82
Ntasg7
g27
sba(idoubletalk.transac
Transaction
(dp337
g2
I925516800
sg3
(lp338
(S'MyCo.Capital.PL.Expenses.Utilities'
I9
Nta(g5
I-9
Ntasg7
g27
sba(idoubletalk.transac
Transaction
(dp339
g2
I925603200
sg3
(lp340
(S'MyCo.Capital.PL.Expenses.Labour'
I78
Nta(g5
I-78
Ntasg7
g27
sba(idoubletalk.transac
Transaction
(dp341
g2
I925603200
sg3
(lp342
(S'MyCo.Capital.PL.Expenses.Rent'
I59
Nta(g5
I-59
Ntasg7
g27
sba(idoubletalk.transac
Transaction
(dp343
g2
I925689600
sg3
(lp344
(S'MyCo.Capital.PL.Income.Software'
I0
Nta(g19
F0
Nta(g5
F0
Ntasg7
S'Cash Sale - Product Sales for month'
sba(idoubletalk.transac
Transaction
(dp345
g2
I925776000
sg3
(lp346
(S'MyCo.Capital.PL.Expenses.Travel'
I52
Nta(g5
I-52
Ntasg7
g27
sba(idoubletalk.transac
Transaction
(dp347
g2
I925862400
sg3
(lp348
(S'MyCo.Capital.PL.Expenses.Contractors'
I1500
Nta(g19
F262.5
Nta(g63
F-1762.5
Ntasg7
S'Bill received - Contractor'
sba(idoubletalk.transac
Transaction
(dp349
g2
I925948800
sg3
(lp350
(S'MyCo.Capital.PL.Income.Consulting'
I-13000
Nta(g19
F-2275
Nta(g111
F15275
Ntasg7
S'Bill raised - Consulting to 3/5/1999'
sba(idoubletalk.transac
Transaction
(dp351
g2
I925948800
sg3
(lp352
(S'MyCo.Capital.PL.Expenses.Labour'
I4
Nta(g5
I-4
Ntasg7
g27
sba(idoubletalk.transac
Transaction
(dp353
g2
I926035200
sg3
(lp354
(S'MyCo.Capital.PL.Expenses.Rent'
I71
Nta(g5
I-71
Ntasg7
g27
sba(idoubletalk.transac
Transaction
(dp355
g2
I926121600
sg3
(lp356
(g63
F1762.5
Nta(g5
F-1762.5
Ntasg7
S'Bill paid - Contractor'
sba(idoubletalk.transac
Transaction
(dp357
g2
I926121600
sg3
(lp358
(S'MyCo.Capital.PL.Expenses.Rent'
I39
Nta(g5
I-39
Ntasg7
g27
sba(idoubletalk.transac
Transaction
(dp359
g2
I926121600
sg3
(lp360
(S'MyCo.Capital.PL.Expenses.Utilities'
I64
Nta(g5
I-64
Ntasg7
g27
sba(idoubletalk.transac
Transaction
(dp361
g2
I926208000
sg3
(lp362
(S'MyCo.Capital.PL.Expenses.Travel'
I73
Nta(g5
I-73
Ntasg7
g27
sba(idoubletalk.transac
Transaction
(dp363
g2
I926294400
sg3
(lp364
(S'MyCo.Capital.PL.Expenses.Labour'
I53
Nta(g5
I-53
Ntasg7
g27
sba(idoubletalk.transac
Transaction
(dp365
g2
I926294400
sg3
(lp366
(S'MyCo.Capital.PL.Expenses.Travel'
I30
Nta(g5
I-30
Ntasg7
g27
sba(idoubletalk.transac
Transaction
(dp367
g2
I926380800
sg3
(lp368
(g111
F-13160
Nta(g5
F13160
Ntasg7
S'Payment received - Consulting to 3/4/1999'
sba(idoubletalk.transac
Transaction
(dp369
g2
I926380800
sg3
(lp370
(S'MyCo.Capital.PL.Expenses.Stationery'
I59
Nta(g5
I-59
Ntasg7
g27
sba(idoubletalk.transac
Transaction
(dp371
g2
I926467200
sg3
(lp372
(S'MyCo.Capital.PL.Expenses.Contractors'
I1500
Nta(g19
F262.5
Nta(g63
F-1762.5
Ntasg7
S'Bill received - Contractor'
sba(idoubletalk.transac
Transaction
(dp373
g2
I926640000
sg3
(lp374
(S'MyCo.Capital.PL.Expenses.Rent'
I1
Nta(g5
I-1
Ntasg7
g27
sba(idoubletalk.transac
Transaction
(dp375
g2
I926726400
sg3
(lp376
(g63
F1762.5
Nta(g5
F-1762.5
Ntasg7
S'Bill paid - Contractor'
sba(idoubletalk.transac
Transaction
(dp377
g2
I926726400
sg3
(lp378
(S'MyCo.Capital.PL.Expenses.Travel'
I30
Nta(g5
I-30
Ntasg7
g27
sba(idoubletalk.transac
Transaction
(dp379
g2
I926812800
sg3
(lp380
(S'MyCo.Capital.PL.Expenses.Rent'
I60
Nta(g5
I-60
Ntasg7
g27
sba(idoubletalk.transac
Transaction
(dp381
g2
I926899200
sg3
(lp382
(g5
F-3525
Nta(g63
F3525
Ntasg7
g130
sba(idoubletalk.transac
Transaction
(dp383
g2
I926985600
sg3
(lp384
(g62
F1500
Nta(g19
F262.5
Nta(g63
F-1762.5
Ntasg7
g64
sba(idoubletalk.transac
Transaction
(dp385
g2
I927072000
sg3
(lp386
(S'MyCo.Capital.PL.Expenses.Contractors'
I1500
Nta(g19
F262.5
Nta(g63
F-1762.5
Ntasg7
S'Bill received - Contractor'
sba(idoubletalk.transac
Transaction
(dp387
g2
I927158400
sg3
(lp388
(S'MyCo.Capital.PL.Expenses.Rent'
I48
Nta(g5
I-48
Ntasg7
g27
sba(idoubletalk.transac
Transaction
(dp389
g2
I927331200
sg3
(lp390
(g63
F1762.5
Nta(g5
F-1762.5
Ntasg7
S'Bill paid - Contractor'
sba(idoubletalk.transac
Transaction
(dp391
g2
I927331200
sg3
(lp392
(S'MyCo.Capital.PL.Expenses.Travel'
I61
Nta(g5
I-61
Ntasg7
g27
sba(idoubletalk.transac
Transaction
(dp393
g2
I927331200
sg3
(lp394
(S'MyCo.Capital.PL.Expenses.Utilities'
I29
Nta(g5
I-29
Ntasg7
g27
sba(idoubletalk.transac
Transaction
(dp395
g2
I927590400
sg3
(lp396
(S'MyCo.Capital.PL.Expenses.Wages'
I3000
Nta(g5
I-3000
Ntasg7
S'Salary for Roger'
sba(idoubletalk.transac
Transaction
(dp397
g2
I927590400
sg3
(lp398
(S'MyCo.Capital.PL.Expenses.Wages'
I2000
Nta(g5
I-2000
Ntasg7
S'Salary for Simon'
sba(idoubletalk.transac
Transaction
(dp399
g2
I927590400
sg3
(lp400
(S'MyCo.Capital.PL.Expenses.Wages'
I1500
Nta(g5
I-1500
Ntasg7
S'Salary for Tim'
sba(idoubletalk.transac
Transaction
(dp401
g2
I927590400
sg3
(lp402
(S'MyCo.Capital.PL.Expenses.Wages'
I3000
Nta(g5
I-3000
Ntasg7
S'Salary for Andy'
sba(idoubletalk.transac
Transaction
(dp403
g2
I927590400
sg3
(lp404
(S'MyCo.Capital.PL.Expenses.Labour'
I79
Nta(g5
I-79
Ntasg7
g27
sba(idoubletalk.transac
Transaction
(dp405
g2
I927676800
sg3
(lp406
(S'MyCo.Capital.PL.Expenses.Contractors'
I1500
Nta(g19
F262.5
Nta(g63
F-1762.5
Ntasg7
S'Bill received - Contractor'
sba(idoubletalk.transac
Transaction
(dp407
g2
I927763200
sg3
(lp408
(S'MyCo.Capital.PL.Expenses.Utilities'
I27
Nta(g5
I-27
Ntasg7
g27
sba(idoubletalk.transac
Transaction
(dp409
g2
I927849600
sg3
(lp410
(S'MyCo.Capital.PL.Expenses.Travel'
I100
Nta(g5
I-100
Ntasg7
g27
sba(idoubletalk.transac
Transaction
(dp411
g2
I927936000
sg3
(lp412
(g63
F1762.5
Nta(g5
F-1762.5
Ntasg7
S'Bill paid - Contractor'
sba(idoubletalk.transac
Transaction
(dp413
g2
I928108800
sg3
(lp414
(S'MyCo.Capital.PL.Expenses.Utilities'
I75
Nta(g5
I-75
Ntasg7
g27
sba(idoubletalk.transac
Transaction
(dp415
g2
I928195200
sg3
(lp416
(g5
F-461.44999999999999
Nta(g95
F387.64999999999998
Nta(g169
F73.799999999999997
Ntasg7
g170
sba(idoubletalk.transac
Transaction
(dp417
g2
I928195200
sg3
(lp418
(S'MyCo.Capital.PL.Expenses.Rent'
I1500
Nta(g11
I-1500
Ntasg7
g12
sba(idoubletalk.transac
Transaction
(dp419
g2
I928195200
sg3
(lp420
(g18
F503
Nta(g19
F88.024999999999991
Nta(g5
F-591.02499999999998
Ntasg7
g20
sba(idoubletalk.transac
Transaction
(dp421
g2
I928195200
sg3
(lp422
(g23
F1000
Nta(g19
F175
Nta(g5
F-1175
Ntasg7
g24
sba(idoubletalk.transac
Transaction
(dp423
g2
I928281600
sg3
(lp424
(S'MyCo.Capital.PL.Expenses.Contractors'
I1500
Nta(g19
F262.5
Nta(g63
F-1762.5
Ntasg7
S'Bill received - Contractor'
sba(idoubletalk.transac
Transaction
(dp425
g2
I928281600
sg3
(lp426
(S'MyCo.Capital.PL.Expenses.Stationery'
I15
Nta(g5
I-15
Ntasg7
g27
sba(idoubletalk.transac
Transaction
(dp427
g2
I928368000
sg3
(lp428
(S'MyCo.Capital.PL.Income.Software'
I0
Nta(g19
F0
Nta(g5
F0
Ntasg7
S'Cash Sale - Product Sales for month'
sba(idoubletalk.transac
Transaction
(dp429
g2
I928368000
sg3
(lp430
(S'MyCo.Capital.PL.Expenses.Labour'
I18
Nta(g5
I-18
Ntasg7
g27
sba(idoubletalk.transac
Transaction
(dp431
g2
I928454400
sg3
(lp432
(S'MyCo.Capital.PL.Expenses.Labour'
I65
Nta(g5
I-65
Ntasg7
g27
sba(idoubletalk.transac
Transaction
(dp433
g2
I928540800
sg3
(lp434
(g63
F1762.5
Nta(g5
F-1762.5
Ntasg7
S'Bill paid - Contractor'
sba(idoubletalk.transac
Transaction
(dp435
g2
I928540800
sg3
(lp436
(S'MyCo.Capital.PL.Expenses.Rent'
I92
Nta(g5
I-92
Ntasg7
g27
sba(idoubletalk.transac
Transaction
(dp437
g2
I928627200
sg3
(lp438
(S'MyCo.Capital.PL.Income.Consulting'
I-14800
Nta(g19
F-2590
Nta(g111
F17390
Ntasg7
S'Bill raised - Consulting to 3/6/1999'
sba(idoubletalk.transac
Transaction
(dp439
g2
I928627200
sg3
(lp440
(S'MyCo.Capital.PL.Expenses.Travel'
I87
Nta(g5
I-87
Ntasg7
g27
sba(idoubletalk.transac
Transaction
(dp441
g2
I928886400
sg3
(lp442
(S'MyCo.Capital.PL.Expenses.Contractors'
I1500
Nta(g19
F262.5
Nta(g63
F-1762.5
Ntasg7
S'Bill received - Contractor'
sba(idoubletalk.transac
Transaction
(dp443
g2
I928886400
sg3
(lp444
(S'MyCo.Capital.PL.Expenses.Labour'
I99
Nta(g5
I-99
Ntasg7
g27
sba(idoubletalk.transac
Transaction
(dp445
g2
I928972800
sg3
(lp446
(g111
F-15275
Nta(g5
F15275
Ntasg7
S'Payment received - Consulting to 3/5/1999'
sba(idoubletalk.transac
Transaction
(dp447
g2
I929145600
sg3
(lp448
(g63
F1762.5
Nta(g5
F-1762.5
Ntasg7
S'Bill paid - Contractor'
sba(idoubletalk.transac
Transaction
(dp449
g2
I929232000
sg3
(lp450
(S'MyCo.Capital.PL.Expenses.Rent'
I32
Nta(g5
I-32
Ntasg7
g27
sba(idoubletalk.transac
Transaction
(dp451
g2
I929232000
sg3
(lp452
(S'MyCo.Capital.PL.Expenses.Stationery'
I13
Nta(g5
I-13
Ntasg7
g27
sba(idoubletalk.transac
Transaction
(dp453
g2
I929232000
sg3
(lp454
(S'MyCo.Capital.PL.Expenses.Rent'
I9
Nta(g5
I-9
Ntasg7
g27
sba(idoubletalk.transac
Transaction
(dp455
g2
I929491200
sg3
(lp456
(S'MyCo.Capital.PL.Expenses.Contractors'
I1500
Nta(g19
F262.5
Nta(g63
F-1762.5
Ntasg7
S'Bill received - Contractor'
sba(idoubletalk.transac
Transaction
(dp457
g2
I929491200
sg3
(lp458
(S'MyCo.Capital.PL.Expenses.Travel'
I89
Nta(g5
I-89
Ntasg7
g27
sba(idoubletalk.transac
Transaction
(dp459
g2
I929577600
sg3
(lp460
(g5
F-1762.5
Nta(g63
F1762.5
Ntasg7
g130
sba(idoubletalk.transac
Transaction
(dp461
g2
I929664000
sg3
(lp462
(g62
F1500
Nta(g19
F262.5
Nta(g63
F-1762.5
Ntasg7
g64
sba(idoubletalk.transac
Transaction
(dp463
g2
I929664000
sg3
(lp464
(S'MyCo.Capital.PL.Expenses.Travel'
I1
Nta(g5
I-1
Ntasg7
g27
sba(idoubletalk.transac
Transaction
(dp465
g2
I929750400
sg3
(lp466
(g63
F1762.5
Nta(g5
F-1762.5
Ntasg7
S'Bill paid - Contractor'
sba(idoubletalk.transac
Transaction
(dp467
g2
I929836800
sg3
(lp468
(S'MyCo.Capital.PL.Expenses.Utilities'
I100
Nta(g5
I-100
Ntasg7
g27
sba(idoubletalk.transac
Transaction
(dp469
g2
I929923200
sg3
(lp470
(S'MyCo.Capital.PL.Expenses.Stationery'
I94
Nta(g5
I-94
Ntasg7
g27
sba(idoubletalk.transac
Transaction
(dp471
g2
I930096000
sg3
(lp472
(S'MyCo.Capital.PL.Expenses.Contractors'
I1500
Nta(g19
F262.5
Nta(g63
F-1762.5
Ntasg7
S'Bill received - Contractor'
sba(idoubletalk.transac
Transaction
(dp473
g2
I930182400
sg3
(lp474
(S'MyCo.Capital.PL.Expenses.Labour'
I49
Nta(g5
I-49
Ntasg7
g27
sba(idoubletalk.transac
Transaction
(dp475
g2
I930268800
sg3
(lp476
(S'MyCo.Capital.PL.Expenses.Wages'
I3000
Nta(g5
I-3000
Ntasg7
S'Salary for Roger'
sba(idoubletalk.transac
Transaction
(dp477
g2
I930268800
sg3
(lp478
(S'MyCo.Capital.PL.Expenses.Wages'
I2000
Nta(g5
I-2000
Ntasg7
S'Salary for Simon'
sba(idoubletalk.transac
Transaction
(dp479
g2
I930268800
sg3
(lp480
(S'MyCo.Capital.PL.Expenses.Wages'
I1500
Nta(g5
I-1500
Ntasg7
S'Salary for Tim'
sba(idoubletalk.transac
Transaction
(dp481
g2
I930268800
sg3
(lp482
(S'MyCo.Capital.PL.Expenses.Wages'
I3000
Nta(g5
I-3000
Ntasg7
S'Salary for Andy'
sba(idoubletalk.transac
Transaction
(dp483
g2
I930268800
sg3
(lp484
(S'MyCo.Capital.PL.Expenses.Stationery'
I93
Nta(g5
I-93
Ntasg7
g27
sba(idoubletalk.transac
Transaction
(dp485
g2
I930355200
sg3
(lp486
(g63
F1762.5
Nta(g5
F-1762.5
Ntasg7
S'Bill paid - Contractor'
sba(idoubletalk.transac
Transaction
(dp487
g2
I930441600
sg3
(lp488
(S'MyCo.Capital.PL.Expenses.Utilities'
I68
Nta(g5
I-68
Ntasg7
g27
sba(idoubletalk.transac
Transaction
(dp489
g2
I930614400
sg3
(lp490
(S'MyCo.Capital.PL.Expenses.Labour'
I9
Nta(g5
I-9
Ntasg7
g27
sba(idoubletalk.transac
Transaction
(dp491
g2
I930614400
sg3
(lp492
(S'MyCo.Capital.PL.Expenses.Utilities'
I35
Nta(g5
I-35
Ntasg7
g27
sba(idoubletalk.transac
Transaction
(dp493
g2
I930700800
sg3
(lp494
(S'MyCo.Capital.PL.Expenses.Contractors'
I1500
Nta(g19
F262.5
Nta(g63
F-1762.5
Ntasg7
S'Bill received - Contractor'
sba(idoubletalk.transac
Transaction
(dp495
g2
I930787200
sg3
(lp496
(g5
F-461.44999999999999
Nta(g95
F390.88
Nta(g169
F70.570000000000007
Ntasg7
g170
sba(idoubletalk.transac
Transaction
(dp497
g2
I930787200
sg3
(lp498
(S'MyCo.Capital.PL.Expenses.Rent'
I1500
Nta(g11
I-1500
Ntasg7
g12
sba(idoubletalk.transac
Transaction
(dp499
g2
I930787200
sg3
(lp500
(g11
I4500
Nta(g5
I-4500
Ntasg7
g15
sba(idoubletalk.transac
Transaction
(dp501
g2
I930787200
sg3
(lp502
(g18
F350
Nta(g19
F61.249999999999993
Nta(g5
F-411.25
Ntasg7
g20
sba(idoubletalk.transac
Transaction
(dp503
g2
I930787200
sg3
(lp504
(g23
F1000
Nta(g19
F175
Nta(g5
F-1175
Ntasg7
g24
sba(idoubletalk.transac
Transaction
(dp505
g2
I930787200
sg3
(lp506
(S'MyCo.Capital.PL.Expenses.Travel'
I85
Nta(g5
I-85
Ntasg7
g27
sba(idoubletalk.transac
Transaction
(dp507
g2
I930787200
sg3
(lp508
(S'MyCo.Capital.PL.Expenses.Rent'
I26
Nta(g5
I-26
Ntasg7
g27
sba(idoubletalk.transac
Transaction
(dp509
g2
I930873600
sg3
(lp510
(S'MyCo.Capital.PL.Expenses.Utilities'
I90
Nta(g5
I-90
Ntasg7
g27
sba(idoubletalk.transac
Transaction
(dp511
g2
I930960000
sg3
(lp512
(g63
F1762.5
Nta(g5
F-1762.5
Ntasg7
S'Bill paid - Contractor'
sba(idoubletalk.transac
Transaction
(dp513
g2
I930960000
sg3
(lp514
(S'MyCo.Capital.PL.Income.Software'
I0
Nta(g19
F0
Nta(g5
F0
Ntasg7
S'Cash Sale - Product Sales for month'
sba(idoubletalk.transac
Transaction
(dp515
g2
I931046400
sg3
(lp516
(S'MyCo.Capital.PL.Expenses.Travel'
I46
Nta(g5
I-46
Ntasg7
g27
sba(idoubletalk.transac
Transaction
(dp517
g2
I931219200
sg3
(lp518
(S'MyCo.Capital.PL.Income.Consulting'
I-16600
Nta(g19
F-2905
Nta(g111
F19505
Ntasg7
S'Bill raised - Consulting to 3/7/1999'
sba(idoubletalk.transac
Transaction
(dp519
g2
I931305600
sg3
(lp520
(S'MyCo.Capital.PL.Expenses.Contractors'
I1500
Nta(g19
F262.5
Nta(g63
F-1762.5
Ntasg7
S'Bill received - Contractor'
sba(idoubletalk.transac
Transaction
(dp521
g2
I931392000
sg3
(lp522
(S'MyCo.Capital.PL.Expenses.Rent'
I63
Nta(g5
I-63
Ntasg7
g27
sba(idoubletalk.transac
Transaction
(dp523
g2
I931392000
sg3
(lp524
(S'MyCo.Capital.PL.Expenses.Labour'
I56
Nta(g5
I-56
Ntasg7
g27
sba(idoubletalk.transac
Transaction
(dp525
g2
I931392000
sg3
(lp526
(S'MyCo.Capital.PL.Expenses.Stationery'
I17
Nta(g5
I-17
Ntasg7
g27
sba(idoubletalk.transac
Transaction
(dp527
g2
I931478400
sg3
(lp528
(S'MyCo.Capital.PL.Expenses.Travel'
I80
Nta(g5
I-80
Ntasg7
g27
sba(idoubletalk.transac
Transaction
(dp529
g2
I931564800
sg3
(lp530
(g63
F1762.5
Nta(g5
F-1762.5
Ntasg7
S'Bill paid - Contractor'
sba(idoubletalk.transac
Transaction
(dp531
g2
I931564800
sg3
(lp532
(S'MyCo.Capital.PL.Expenses.Utilities'
I1
Nta(g5
I-1
Ntasg7
g27
sba(idoubletalk.transac
Transaction
(dp533
g2
I931651200
sg3
(lp534
(g111
F-17390
Nta(g5
F17390
Ntasg7
S'Payment received - Consulting to 3/6/1999'
sba(idoubletalk.transac
Transaction
(dp535
g2
I931737600
sg3
(lp536
(S'MyCo.Capital.PL.Expenses.Stationery'
I54
Nta(g5
I-54
Ntasg7
g27
sba(idoubletalk.transac
Transaction
(dp537
g2
I931910400
sg3
(lp538
(S'MyCo.Capital.PL.Expenses.Contractors'
I1500
Nta(g19
F262.5
Nta(g63
F-1762.5
Ntasg7
S'Bill received - Contractor'
sba(idoubletalk.transac
Transaction
(dp539
g2
I931996800
sg3
(lp540
(S'MyCo.Capital.PL.Expenses.Rent'
I40
Nta(g5
I-40
Ntasg7
g27
sba(idoubletalk.transac
Transaction
(dp541
g2
I931996800
sg3
(lp542
(S'MyCo.Capital.PL.Expenses.Stationery'
I17
Nta(g5
I-17
Ntasg7
g27
sba(idoubletalk.transac
Transaction
(dp543
g2
I932083200
sg3
(lp544
(S'MyCo.Capital.PL.Expenses.Stationery'
I64
Nta(g5
I-64
Ntasg7
g27
sba(idoubletalk.transac
Transaction
(dp545
g2
I932169600
sg3
(lp546
(g5
F-1762.5
Nta(g63
F1762.5
Ntasg7
g130
sba(idoubletalk.transac
Transaction
(dp547
g2
I932169600
sg3
(lp548
(g63
F1762.5
Nta(g5
F-1762.5
Ntasg7
S'Bill paid - Contractor'
sba(idoubletalk.transac
Transaction
(dp549
g2
I932169600
sg3
(lp550
(S'MyCo.Capital.PL.Expenses.Labour'
I47
Nta(g5
I-47
Ntasg7
g27
sba(idoubletalk.transac
Transaction
(dp551
g2
I932256000
sg3
(lp552
(g62
F1500
Nta(g19
F262.5
Nta(g63
F-1762.5
Ntasg7
g64
sba(idoubletalk.transac
Transaction
(dp553
g2
I932256000
sg3
(lp554
(S'MyCo.Capital.PL.Expenses.Labour'
I58
Nta(g5
I-58
Ntasg7
g27
sba(idoubletalk.transac
Transaction
(dp555
g2
I932256000
sg3
(lp556
(S'MyCo.Capital.PL.Expenses.Travel'
I30
Nta(g5
I-30
Ntasg7
g27
sba(idoubletalk.transac
Transaction
(dp557
g2
I932342400
sg3
(lp558
(S'MyCo.Capital.PL.Expenses.Rent'
I71
Nta(g5
I-71
Ntasg7
g27
sba(idoubletalk.transac
Transaction
(dp559
g2
I932515200
sg3
(lp560
(S'MyCo.Capital.PL.Expenses.Contractors'
I1500
Nta(g19
F262.5
Nta(g63
F-1762.5
Ntasg7
S'Bill received - Contractor'
sba(idoubletalk.transac
Transaction
(dp561
g2
I932515200
sg3
(lp562
(S'MyCo.Capital.PL.Expenses.Utilities'
I56
Nta(g5
I-56
Ntasg7
g27
sba(idoubletalk.transac
Transaction
(dp563
g2
I932688000
sg3
(lp564
(S'MyCo.Capital.PL.Expenses.Utilities'
I24
Nta(g5
I-24
Ntasg7
g27
sba(idoubletalk.transac
Transaction
(dp565
g2
I932774400
sg3
(lp566
(g63
F1762.5
Nta(g5
F-1762.5
Ntasg7
S'Bill paid - Contractor'
sba(idoubletalk.transac
Transaction
(dp567
g2
I932774400
sg3
(lp568
(S'MyCo.Capital.PL.Expenses.Travel'
I94
Nta(g5
I-94
Ntasg7
g27
sba(idoubletalk.transac
Transaction
(dp569
g2
I932860800
sg3
(lp570
(S'MyCo.Capital.PL.Expenses.Wages'
I3000
Nta(g5
I-3000
Ntasg7
S'Salary for Roger'
sba(idoubletalk.transac
Transaction
(dp571
g2
I932860800
sg3
(lp572
(S'MyCo.Capital.PL.Expenses.Wages'
I2000
Nta(g5
I-2000
Ntasg7
S'Salary for Simon'
sba(idoubletalk.transac
Transaction
(dp573
g2
I932860800
sg3
(lp574
(S'MyCo.Capital.PL.Expenses.Wages'
I1500
Nta(g5
I-1500
Ntasg7
S'Salary for Tim'
sba(idoubletalk.transac
Transaction
(dp575
g2
I932860800
sg3
(lp576
(S'MyCo.Capital.PL.Expenses.Wages'
I3000
Nta(g5
I-3000
Ntasg7
S'Salary for Andy'
sba(idoubletalk.transac
Transaction
(dp577
g2
I932860800
sg3
(lp578
(S'MyCo.Capital.PL.Expenses.Rent'
I56
Nta(g5
I-56
Ntasg7
g27
sba(idoubletalk.transac
Transaction
(dp579
g2
I933120000
sg3
(lp580
(S'MyCo.Capital.PL.Expenses.Contractors'
I1500
Nta(g19
F262.5
Nta(g63
F-1762.5
Ntasg7
S'Bill received - Contractor'
sba(idoubletalk.transac
Transaction
(dp581
g2
I933120000
sg3
(lp582
(S'MyCo.Capital.PL.Expenses.Rent'
I40
Nta(g5
I-40
Ntasg7
g27
sba(idoubletalk.transac
Transaction
(dp583
g2
I933206400
sg3
(lp584
(S'MyCo.Capital.PL.Expenses.Rent'
I24
Nta(g5
I-24
Ntasg7
g27
sba(idoubletalk.transac
Transaction
(dp585
g2
I933379200
sg3
(lp586
(g63
F1762.5
Nta(g5
F-1762.5
Ntasg7
S'Bill paid - Contractor'
sba(idoubletalk.transac
Transaction
(dp587
g2
I933465600
sg3
(lp588
(g5
F-461.44999999999999
Nta(g95
F394.13999999999999
Nta(g169
F67.310000000000002
Ntasg7
g170
sba(idoubletalk.transac
Transaction
(dp589
g2
I933465600
sg3
(lp590
(S'MyCo.Capital.PL.Expenses.Rent'
I1500
Nta(g11
I-1500
Ntasg7
g12
sba(idoubletalk.transac
Transaction
(dp591
g2
I933465600
sg3
(lp592
(g18
F521
Nta(g19
F91.174999999999997
Nta(g5
F-612.17500000000007
Ntasg7
g20
sba(idoubletalk.transac
Transaction
(dp593
g2
I933465600
sg3
(lp594
(g23
F1200
Nta(g19
F210
Nta(g5
F-1410
Ntasg7
g24
sba(idoubletalk.transac
Transaction
(dp595
g2
I933638400
sg3
(lp596
(S'MyCo.Capital.PL.Income.Software'
I0
Nta(g19
F0
Nta(g5
F0
Ntasg7
S'Cash Sale - Product Sales for month'
sba(idoubletalk.transac
Transaction
(dp597
g2
I933638400
sg3
(lp598
(S'MyCo.Capital.PL.Expenses.Utilities'
I61
Nta(g5
I-61
Ntasg7
g27
sba(idoubletalk.transac
Transaction
(dp599
g2
I933724800
sg3
(lp600
(S'MyCo.Capital.PL.Expenses.Contractors'
I1500
Nta(g19
F262.5
Nta(g63
F-1762.5
Ntasg7
S'Bill received - Contractor'
sba(idoubletalk.transac
Transaction
(dp601
g2
I933811200
sg3
(lp602
(S'MyCo.Capital.PL.Expenses.Travel'
I30
Nta(g5
I-30
Ntasg7
g27
sba(idoubletalk.transac
Transaction
(dp603
g2
I933897600
sg3
(lp604
(S'MyCo.Capital.PL.Income.Consulting'
I-17600
Nta(g19
F-3080
Nta(g111
F20680
Ntasg7
S'Bill raised - Consulting to 3/8/1999'
sba(idoubletalk.transac
Transaction
(dp605
g2
I933984000
sg3
(lp606
(g63
F1762.5
Nta(g5
F-1762.5
Ntasg7
S'Bill paid - Contractor'
sba(idoubletalk.transac
Transaction
(dp607
g2
I934156800
sg3
(lp608
(S'MyCo.Capital.PL.Expenses.Utilities'
I37
Nta(g5
I-37
Ntasg7
g27
sba(idoubletalk.transac
Transaction
(dp609
g2
I934243200
sg3
(lp610
(g111
F-19505
Nta(g5
F19505
Ntasg7
S'Payment received - Consulting to 3/7/1999'
sba(idoubletalk.transac
Transaction
(dp611
g2
I934329600
sg3
(lp612
(S'MyCo.Capital.PL.Expenses.Contractors'
I1500
Nta(g19
F262.5
Nta(g63
F-1762.5
Ntasg7
S'Bill received - Contractor'
sba(idoubletalk.transac
Transaction
(dp613
g2
I934329600
sg3
(lp614
(S'MyCo.Capital.PL.Expenses.Travel'
I43
Nta(g5
I-43
Ntasg7
g27
sba(idoubletalk.transac
Transaction
(dp615
g2
I934502400
sg3
(lp616
(S'MyCo.Capital.PL.Expenses.Travel'
I23
Nta(g5
I-23
Ntasg7
g27
sba(idoubletalk.transac
Transaction
(dp617
g2
I934502400
sg3
(lp618
(S'MyCo.Capital.PL.Expenses.Travel'
I35
Nta(g5
I-35
Ntasg7
g27
sba(idoubletalk.transac
Transaction
(dp619
g2
I934588800
sg3
(lp620
(g63
F1762.5
Nta(g5
F-1762.5
Ntasg7
S'Bill paid - Contractor'
sba(idoubletalk.transac
Transaction
(dp621
g2
I934848000
sg3
(lp622
(g5
F-1762.5
Nta(g63
F1762.5
Ntasg7
g130
sba(idoubletalk.transac
Transaction
(dp623
g2
I934848000
sg3
(lp624
(S'MyCo.Capital.PL.Expenses.Rent'
I37
Nta(g5
I-37
Ntasg7
g27
sba(idoubletalk.transac
Transaction
(dp625
g2
I934934400
sg3
(lp626
(g62
F1500
Nta(g19
F262.5
Nta(g63
F-1762.5
Ntasg7
g64
sba(idoubletalk.transac
Transaction
(dp627
g2
I934934400
sg3
(lp628
(S'MyCo.Capital.PL.Expenses.Contractors'
I1500
Nta(g19
F262.5
Nta(g63
F-1762.5
Ntasg7
S'Bill received - Contractor'
sba(idoubletalk.transac
Transaction
(dp629
g2
I935193600
sg3
(lp630
(g63
F1762.5
Nta(g5
F-1762.5
Ntasg7
S'Bill paid - Contractor'
sba(idoubletalk.transac
Transaction
(dp631
g2
I935366400
sg3
(lp632
(S'MyCo.Capital.PL.Expenses.Rent'
I96
Nta(g5
I-96
Ntasg7
g27
sba(idoubletalk.transac
Transaction
(dp633
g2
I935539200
sg3
(lp634
(S'MyCo.Capital.PL.Expenses.Wages'
I3000
Nta(g5
I-3000
Ntasg7
S'Salary for Roger'
sba(idoubletalk.transac
Transaction
(dp635
g2
I935539200
sg3
(lp636
(S'MyCo.Capital.PL.Expenses.Wages'
I2000
Nta(g5
I-2000
Ntasg7
S'Salary for Simon'
sba(idoubletalk.transac
Transaction
(dp637
g2
I935539200
sg3
(lp638
(S'MyCo.Capital.PL.Expenses.Wages'
I1500
Nta(g5
I-1500
Ntasg7
S'Salary for Tim'
sba(idoubletalk.transac
Transaction
(dp639
g2
I935539200
sg3
(lp640
(S'MyCo.Capital.PL.Expenses.Wages'
I3000
Nta(g5
I-3000
Ntasg7
S'Salary for Andy'
sba(idoubletalk.transac
Transaction
(dp641
g2
I935539200
sg3
(lp642
(S'MyCo.Capital.PL.Expenses.Wages'
I3000
Nta(g5
I-3000
Ntasg7
S'Salary for Richard'
sba(idoubletalk.transac
Transaction
(dp643
g2
I935539200
sg3
(lp644
(S'MyCo.Capital.PL.Expenses.Contractors'
I1500
Nta(g19
F262.5
Nta(g63
F-1762.5
Ntasg7
S'Bill received - Contractor'
sba(idoubletalk.transac
Transaction
(dp645
g2
I935798400
sg3
(lp646
(g63
F1762.5
Nta(g5
F-1762.5
Ntasg7
S'Bill paid - Contractor'
sba(idoubletalk.transac
Transaction
(dp647
g2
I935798400
sg3
(lp648
(S'MyCo.Capital.PL.Expenses.Labour'
I64
Nta(g5
I-64
Ntasg7
g27
sba(idoubletalk.transac
Transaction
(dp649
g2
I935798400
sg3
(lp650
(S'MyCo.Capital.PL.Expenses.Rent'
I25
Nta(g5
I-25
Ntasg7
g27
sba(idoubletalk.transac
Transaction
(dp651
g2
I935884800
sg3
(lp652
(S'MyCo.Capital.PL.Expenses.Utilities'
I87
Nta(g5
I-87
Ntasg7
g27
sba(idoubletalk.transac
Transaction
(dp653
g2
I936144000
sg3
(lp654
(g5
F-461.44999999999999
Nta(g95
F397.43000000000001
Nta(g169
F64.019999999999996
Ntasg7
g170
sba(idoubletalk.transac
Transaction
(dp655
g2
I936144000
sg3
(lp656
(S'MyCo.Capital.PL.Expenses.Rent'
I1500
Nta(g11
I-1500
Ntasg7
g12
sba(idoubletalk.transac
Transaction
(dp657
g2
I936144000
sg3
(lp658
(g18
F387
Nta(g19
F67.724999999999994
Nta(g5
F-454.72500000000002
Ntasg7
g20
sba(idoubletalk.transac
Transaction
(dp659
g2
I936144000
sg3
(lp660
(g23
F1200
Nta(g19
F210
Nta(g5
F-1410
Ntasg7
g24
sba(idoubletalk.transac
Transaction
(dp661
g2
I936144000
sg3
(lp662
(S'MyCo.Capital.PL.Expenses.Contractors'
I1500
Nta(g19
F262.5
Nta(g63
F-1762.5
Ntasg7
S'Bill received - Contractor'
sba(idoubletalk.transac
Transaction
(dp663
g2
I936230400
sg3
(lp664
(S'MyCo.Capital.PL.Expenses.Travel'
I5
Nta(g5
I-5
Ntasg7
g27
sba(idoubletalk.transac
Transaction
(dp665
g2
I936316800
sg3
(lp666
(S'MyCo.Capital.PL.Income.Software'
I0
Nta(g19
F0
Nta(g5
F0
Ntasg7
S'Cash Sale - Product Sales for month'
sba(idoubletalk.transac
Transaction
(dp667
g2
I936316800
sg3
(lp668
(S'MyCo.Capital.PL.Expenses.Utilities'
I47
Nta(g5
I-47
Ntasg7
g27
sba(idoubletalk.transac
Transaction
(dp669
g2
I936403200
sg3
(lp670
(g63
F1762.5
Nta(g5
F-1762.5
Ntasg7
S'Bill paid - Contractor'
sba(idoubletalk.transac
Transaction
(dp671
g2
I936403200
sg3
(lp672
(S'MyCo.Capital.PL.Expenses.Travel'
I74
Nta(g5
I-74
Ntasg7
g27
sba(idoubletalk.transac
Transaction
(dp673
g2
I936403200
sg3
(lp674
(S'MyCo.Capital.PL.Expenses.Labour'
I20
Nta(g5
I-20
Ntasg7
g27
sba(idoubletalk.transac
Transaction
(dp675
g2
I936576000
sg3
(lp676
(S'MyCo.Capital.PL.Income.Consulting'
I-18600
Nta(g19
F-3255
Nta(g111
F21855
Ntasg7
S'Bill raised - Consulting to 3/9/1999'
sba(idoubletalk.transac
Transaction
(dp677
g2
I936576000
sg3
(lp678
(S'MyCo.Capital.PL.Expenses.Utilities'
I31
Nta(g5
I-31
Ntasg7
g27
sba(idoubletalk.transac
Transaction
(dp679
g2
I936576000
sg3
(lp680
(S'MyCo.Capital.PL.Expenses.Rent'
I95
Nta(g5
I-95
Ntasg7
g27
sba(idoubletalk.transac
Transaction
(dp681
g2
I936748800
sg3
(lp682
(S'MyCo.Capital.PL.Expenses.Contractors'
I1500
Nta(g19
F262.5
Nta(g63
F-1762.5
Ntasg7
S'Bill received - Contractor'
sba(idoubletalk.transac
Transaction
(dp683
g2
I936748800
sg3
(lp684
(S'MyCo.Capital.PL.Expenses.Rent'
I3
Nta(g5
I-3
Ntasg7
g27
sba(idoubletalk.transac
Transaction
(dp685
g2
I936748800
sg3
(lp686
(S'MyCo.Capital.PL.Expenses.Labour'
I100
Nta(g5
I-100
Ntasg7
g27
sba(idoubletalk.transac
Transaction
(dp687
g2
I936835200
sg3
(lp688
(S'MyCo.Capital.PL.Expenses.Travel'
I61
Nta(g5
I-61
Ntasg7
g27
sba(idoubletalk.transac
Transaction
(dp689
g2
I936921600
sg3
(lp690
(g111
F-20680
Nta(g5
F20680
Ntasg7
S'Payment received - Consulting to 3/8/1999'
sba(idoubletalk.transac
Transaction
(dp691
g2
I937008000
sg3
(lp692
(g63
F1762.5
Nta(g5
F-1762.5
Ntasg7
S'Bill paid - Contractor'
sba(idoubletalk.transac
Transaction
(dp693
g2
I937008000
sg3
(lp694
(S'MyCo.Capital.PL.Expenses.Stationery'
I77
Nta(g5
I-77
Ntasg7
g27
sba(idoubletalk.transac
Transaction
(dp695
g2
I937180800
sg3
(lp696
(S'MyCo.Capital.PL.Expenses.Labour'
I33
Nta(g5
I-33
Ntasg7
g27
sba(idoubletalk.transac
Transaction
(dp697
g2
I937353600
sg3
(lp698
(S'MyCo.Capital.PL.Expenses.Contractors'
I1500
Nta(g19
F262.5
Nta(g63
F-1762.5
Ntasg7
S'Bill received - Contractor'
sba(idoubletalk.transac
Transaction
(dp699
g2
I937353600
sg3
(lp700
(S'MyCo.Capital.PL.Expenses.Rent'
I62
Nta(g5
I-62
Ntasg7
g27
sba(idoubletalk.transac
Transaction
(dp701
g2
I937526400
sg3
(lp702
(g5
F-1762.5
Nta(g63
F1762.5
Ntasg7
g130
sba(idoubletalk.transac
Transaction
(dp703
g2
I937612800
sg3
(lp704
(g62
F1500
Nta(g19
F262.5
Nta(g63
F-1762.5
Ntasg7
g64
sba(idoubletalk.transac
Transaction
(dp705
g2
I937612800
sg3
(lp706
(g63
F1762.5
Nta(g5
F-1762.5
Ntasg7
S'Bill paid - Contractor'
sba(idoubletalk.transac
Transaction
(dp707
g2
I937612800
sg3
(lp708
(S'MyCo.Capital.PL.Expenses.Labour'
I85
Nta(g5
I-85
Ntasg7
g27
sba(idoubletalk.transac
Transaction
(dp709
g2
I937612800
sg3
(lp710
(S'MyCo.Capital.PL.Expenses.Utilities'
I17
Nta(g5
I-17
Ntasg7
g27
sba(idoubletalk.transac
Transaction
(dp711
g2
I937612800
sg3
(lp712
(S'MyCo.Capital.PL.Expenses.Travel'
I11
Nta(g5
I-11
Ntasg7
g27
sba(idoubletalk.transac
Transaction
(dp713
g2
I937958400
sg3
(lp714
(S'MyCo.Capital.PL.Expenses.Contractors'
I1500
Nta(g19
F262.5
Nta(g63
F-1762.5
Ntasg7
S'Bill received - Contractor'
sba(idoubletalk.transac
Transaction
(dp715
g2
I938044800
sg3
(lp716
(S'MyCo.Capital.PL.Expenses.Utilities'
I91
Nta(g5
I-91
Ntasg7
g27
sba(idoubletalk.transac
Transaction
(dp717
g2
I938131200
sg3
(lp718
(S'MyCo.Capital.PL.Expenses.Rent'
I56
Nta(g5
I-56
Ntasg7
g27
sba(idoubletalk.transac
Transaction
(dp719
g2
I938217600
sg3
(lp720
(S'MyCo.Capital.PL.Expenses.Wages'
I3000
Nta(g5
I-3000
Ntasg7
S'Salary for Roger'
sba(idoubletalk.transac
Transaction
(dp721
g2
I938217600
sg3
(lp722
(S'MyCo.Capital.PL.Expenses.Wages'
I2000
Nta(g5
I-2000
Ntasg7
S'Salary for Simon'
sba(idoubletalk.transac
Transaction
(dp723
g2
I938217600
sg3
(lp724
(S'MyCo.Capital.PL.Expenses.Wages'
I1500
Nta(g5
I-1500
Ntasg7
S'Salary for Tim'
sba(idoubletalk.transac
Transaction
(dp725
g2
I938217600
sg3
(lp726
(S'MyCo.Capital.PL.Expenses.Wages'
I3000
Nta(g5
I-3000
Ntasg7
S'Salary for Andy'
sba(idoubletalk.transac
Transaction
(dp727
g2
I938217600
sg3
(lp728
(S'MyCo.Capital.PL.Expenses.Wages'
I3000
Nta(g5
I-3000
Ntasg7
S'Salary for Richard'
sba(idoubletalk.transac
Transaction
(dp729
g2
I938217600
sg3
(lp730
(g63
F1762.5
Nta(g5
F-1762.5
Ntasg7
S'Bill paid - Contractor'
sba(idoubletalk.transac
Transaction
(dp731
g2
I938304000
sg3
(lp732
(S'MyCo.Capital.PL.Expenses.Utilities'
I70
Nta(g5
I-70
Ntasg7
g27
sba(idoubletalk.transac
Transaction
(dp733
g2
I938563200
sg3
(lp734
(S'MyCo.Capital.PL.Expenses.Contractors'
I1500
Nta(g19
F262.5
Nta(g63
F-1762.5
Ntasg7
S'Bill received - Contractor'
sba(idoubletalk.transac
Transaction
(dp735
g2
I938563200
sg3
(lp736
(S'MyCo.Capital.PL.Expenses.Utilities'
I70
Nta(g5
I-70
Ntasg7
g27
sba(idoubletalk.transac
Transaction
(dp737
g2
I938563200
sg3
(lp738
(S'MyCo.Capital.PL.Expenses.Utilities'
I46
Nta(g5
I-46
Ntasg7
g27
sba(idoubletalk.transac
Transaction
(dp739
g2
I938563200
sg3
(lp740
(S'MyCo.Capital.PL.Expenses.Stationery'
I33
Nta(g5
I-33
Ntasg7
g27
sba(idoubletalk.transac
Transaction
(dp741
g2
I938736000
sg3
(lp742
(g5
F-461.44999999999999
Nta(g95
F400.74000000000001
Nta(g169
F60.710000000000001
Ntasg7
g170
sba(idoubletalk.transac
Transaction
(dp743
g2
I938736000
sg3
(lp744
(S'MyCo.Capital.PL.Expenses.Rent'
I1500
Nta(g11
I-1500
Ntasg7
g12
sba(idoubletalk.transac
Transaction
(dp745
g2
I938736000
sg3
(lp746
(g11
I4500
Nta(g5
I-4500
Ntasg7
g15
sba(idoubletalk.transac
Transaction
(dp747
g2
I938736000
sg3
(lp748
(g18
F568
Nta(g19
F99.399999999999991
Nta(g5
F-667.39999999999998
Ntasg7
g20
sba(idoubletalk.transac
Transaction
(dp749
g2
I938736000
sg3
(lp750
(g23
F1200
Nta(g19
F210
Nta(g5
F-1410
Ntasg7
g24
sba(idoubletalk.transac
Transaction
(dp751
g2
I938736000
sg3
(lp752
(S'MyCo.Capital.PL.Expenses.Labour'
I51
Nta(g5
I-51
Ntasg7
g27
sba(idoubletalk.transac
Transaction
(dp753
g2
I938822400
sg3
(lp754
(g63
F1762.5
Nta(g5
F-1762.5
Ntasg7
S'Bill paid - Contractor'
sba(idoubletalk.transac
Transaction
(dp755
g2
I938908800
sg3
(lp756
(S'MyCo.Capital.PL.Income.Software'
I-5000
Nta(g19
F-875
Nta(g5
F5875
Ntasg7
S'Cash Sale - Product Sales for month'
sba(idoubletalk.transac
Transaction
(dp757
g2
I938995200
sg3
(lp758
(S'MyCo.Capital.PL.Expenses.Labour'
I96
Nta(g5
I-96
Ntasg7
g27
sba(idoubletalk.transac
Transaction
(dp759
g2
I939081600
sg3
(lp760
(S'MyCo.Capital.PL.Expenses.Rent'
I68
Nta(g5
I-68
Ntasg7
g27
sba(idoubletalk.transac
Transaction
(dp761
g2
I939168000
sg3
(lp762
(S'MyCo.Capital.PL.Expenses.Contractors'
I1500
Nta(g19
F262.5
Nta(g63
F-1762.5
Ntasg7
S'Bill received - Contractor'
sba(idoubletalk.transac
Transaction
(dp763
g2
I939168000
sg3
(lp764
(S'MyCo.Capital.PL.Income.Consulting'
I-19600
Nta(g19
F-3430
Nta(g111
F23030
Ntasg7
S'Bill raised - Consulting to 3/10/1999'
sba(idoubletalk.transac
Transaction
(dp765
g2
I939168000
sg3
(lp766
(S'MyCo.Capital.PL.Expenses.Stationery'
I87
Nta(g5
I-87
Ntasg7
g27
sba(idoubletalk.transac
Transaction
(dp767
g2
I939168000
sg3
(lp768
(S'MyCo.Capital.PL.Expenses.Rent'
I17
Nta(g5
I-17
Ntasg7
g27
sba(idoubletalk.transac
Transaction
(dp769
g2
I939254400
sg3
(lp770
(S'MyCo.Capital.PL.Expenses.Travel'
I75
Nta(g5
I-75
Ntasg7
g27
sba(idoubletalk.transac
Transaction
(dp771
g2
I939427200
sg3
(lp772
(g63
F1762.5
Nta(g5
F-1762.5
Ntasg7
S'Bill paid - Contractor'
sba(idoubletalk.transac
Transaction
(dp773
g2
I939427200
sg3
(lp774
(S'MyCo.Capital.PL.Expenses.Stationery'
I9
Nta(g5
I-9
Ntasg7
g27
sba(idoubletalk.transac
Transaction
(dp775
g2
I939513600
sg3
(lp776
(S'MyCo.Capital.PL.Expenses.Labour'
I7
Nta(g5
I-7
Ntasg7
g27
sba(idoubletalk.transac
Transaction
(dp777
g2
I939513600
sg3
(lp778
(S'MyCo.Capital.PL.Expenses.Stationery'
I12
Nta(g5
I-12
Ntasg7
g27
sba(idoubletalk.transac
Transaction
(dp779
g2
I939600000
sg3
(lp780
(g111
F-21855
Nta(g5
F21855
Ntasg7
S'Payment received - Consulting to 3/9/1999'
sba(idoubletalk.transac
Transaction
(dp781
g2
I939600000
sg3
(lp782
(S'MyCo.Capital.PL.Expenses.Rent'
I47
Nta(g5
I-47
Ntasg7
g27
sba(idoubletalk.transac
Transaction
(dp783
g2
I939600000
sg3
(lp784
(S'MyCo.Capital.PL.Expenses.Labour'
I21
Nta(g5
I-21
Ntasg7
g27
sba(idoubletalk.transac
Transaction
(dp785
g2
I939600000
sg3
(lp786
(S'MyCo.Capital.PL.Expenses.Rent'
I17
Nta(g5
I-17
Ntasg7
g27
sba(idoubletalk.transac
Transaction
(dp787
g2
I939686400
sg3
(lp788
(S'MyCo.Capital.PL.Expenses.Rent'
I92
Nta(g5
I-92
Ntasg7
g27
sba(idoubletalk.transac
Transaction
(dp789
g2
I939772800
sg3
(lp790
(S'MyCo.Capital.PL.Expenses.Contractors'
I1500
Nta(g19
F262.5
Nta(g63
F-1762.5
Ntasg7
S'Bill received - Contractor'
sba(idoubletalk.transac
Transaction
(dp791
g2
I939772800
sg3
(lp792
(S'MyCo.Capital.PL.Expenses.Utilities'
I18
Nta(g5
I-18
Ntasg7
g27
sba(idoubletalk.transac
Transaction
(dp793
g2
I939945600
sg3
(lp794
(S'MyCo.Capital.PL.Expenses.Utilities'
I96
Nta(g5
I-96
Ntasg7
g27
sba(idoubletalk.transac
Transaction
(dp795
g2
I939945600
sg3
(lp796
(S'MyCo.Capital.PL.Expenses.Travel'
I60
Nta(g5
I-60
Ntasg7
g27
sba(idoubletalk.transac
Transaction
(dp797
g2
I940032000
sg3
(lp798
(g63
F1762.5
Nta(g5
F-1762.5
Ntasg7
S'Bill paid - Contractor'
sba(idoubletalk.transac
Transaction
(dp799
g2
I940032000
sg3
(lp800
(S'MyCo.Capital.PL.Expenses.Labour'
I37
Nta(g5
I-37
Ntasg7
g27
sba(idoubletalk.transac
Transaction
(dp801
g2
I940032000
sg3
(lp802
(S'MyCo.Capital.PL.Expenses.Utilities'
I29
Nta(g5
I-29
Ntasg7
g27
sba(idoubletalk.transac
Transaction
(dp803
g2
I940032000
sg3
(lp804
(S'MyCo.Capital.PL.Expenses.Rent'
I25
Nta(g5
I-25
Ntasg7
g27
sba(idoubletalk.transac
Transaction
(dp805
g2
I940032000
sg3
(lp806
(S'MyCo.Capital.PL.Expenses.Stationery'
I8
Nta(g5
I-8
Ntasg7
g27
sba(idoubletalk.transac
Transaction
(dp807
g2
I940118400
sg3
(lp808
(g5
F-1762.5
Nta(g63
F1762.5
Ntasg7
g130
sba(idoubletalk.transac
Transaction
(dp809
g2
I940204800
sg3
(lp810
(g62
F1500
Nta(g19
F262.5
Nta(g63
F-1762.5
Ntasg7
g64
sba(idoubletalk.transac
Transaction
(dp811
g2
I940204800
sg3
(lp812
(S'MyCo.Capital.PL.Expenses.Rent'
I78
Nta(g5
I-78
Ntasg7
g27
sba(idoubletalk.transac
Transaction
(dp813
g2
I940204800
sg3
(lp814
(S'MyCo.Capital.PL.Expenses.Travel'
I75
Nta(g5
I-75
Ntasg7
g27
sba(idoubletalk.transac
Transaction
(dp815
g2
I940377600
sg3
(lp816
(S'MyCo.Capital.PL.Expenses.Contractors'
I1500
Nta(g19
F262.5
Nta(g63
F-1762.5
Ntasg7
S'Bill received - Contractor'
sba(idoubletalk.transac
Transaction
(dp817
g2
I940550400
sg3
(lp818
(S'MyCo.Capital.PL.Expenses.Labour'
I25
Nta(g5
I-25
Ntasg7
g27
sba(idoubletalk.transac
Transaction
(dp819
g2
I940636800
sg3
(lp820
(g63
F1762.5
Nta(g5
F-1762.5
Ntasg7
S'Bill paid - Contractor'
sba(idoubletalk.transac
Transaction
(dp821
g2
I940723200
sg3
(lp822
(S'MyCo.Capital.PL.Expenses.Stationery'
I63
Nta(g5
I-63
Ntasg7
g27
sba(idoubletalk.transac
Transaction
(dp823
g2
I940809600
sg3
(lp824
(S'MyCo.Capital.PL.Expenses.Wages'
I3000
Nta(g5
I-3000
Ntasg7
S'Salary for Roger'
sba(idoubletalk.transac
Transaction
(dp825
g2
I940809600
sg3
(lp826
(S'MyCo.Capital.PL.Expenses.Wages'
I2000
Nta(g5
I-2000
Ntasg7
S'Salary for Simon'
sba(idoubletalk.transac
Transaction
(dp827
g2
I940809600
sg3
(lp828
(S'MyCo.Capital.PL.Expenses.Wages'
I1500
Nta(g5
I-1500
Ntasg7
S'Salary for Tim'
sba(idoubletalk.transac
Transaction
(dp829
g2
I940809600
sg3
(lp830
(S'MyCo.Capital.PL.Expenses.Wages'
I3000
Nta(g5
I-3000
Ntasg7
S'Salary for Andy'
sba(idoubletalk.transac
Transaction
(dp831
g2
I940809600
sg3
(lp832
(S'MyCo.Capital.PL.Expenses.Wages'
I3000
Nta(g5
I-3000
Ntasg7
S'Salary for Richard'
sba(idoubletalk.transac
Transaction
(dp833
g2
I940982400
sg3
(lp834
(S'MyCo.Capital.PL.Expenses.Contractors'
I1500
Nta(g19
F262.5
Nta(g63
F-1762.5
Ntasg7
S'Bill received - Contractor'
sba(idoubletalk.transac
Transaction
(dp835
g2
I941068800
sg3
(lp836
(S'MyCo.Capital.PL.Expenses.Rent'
I41
Nta(g5
I-41
Ntasg7
g27
sba(idoubletalk.transac
Transaction
(dp837
g2
I941155200
sg3
(lp838
(S'MyCo.Capital.PL.Expenses.Travel'
I56
Nta(g5
I-56
Ntasg7
g27
sba(idoubletalk.transac
Transaction
(dp839
g2
I941241600
sg3
(lp840
(g63
F1762.5
Nta(g5
F-1762.5
Ntasg7
S'Bill paid - Contractor'
sba(idoubletalk.transac
Transaction
(dp841
g2
I941241600
sg3
(lp842
(S'MyCo.Capital.PL.Expenses.Rent'
I98
Nta(g5
I-98
Ntasg7
g27
sba(idoubletalk.transac
Transaction
(dp843
g2
I941414400
sg3
(lp844
(g5
F-461.44999999999999
Nta(g95
F404.07999999999998
Nta(g169
F57.370000000000005
Ntasg7
g170
sba(idoubletalk.transac
Transaction
(dp845
g2
I941414400
sg3
(lp846
(S'MyCo.Capital.PL.Expenses.Rent'
I1500
Nta(g11
I-1500
Ntasg7
g12
sba(idoubletalk.transac
Transaction
(dp847
g2
I941414400
sg3
(lp848
(g18
F472
Nta(g19
F82.599999999999994
Nta(g5
F-554.60000000000002
Ntasg7
g20
sba(idoubletalk.transac
Transaction
(dp849
g2
I941414400
sg3
(lp850
(g23
F1200
Nta(g19
F210
Nta(g5
F-1410
Ntasg7
g24
sba(idoubletalk.transac
Transaction
(dp851
g2
I941414400
sg3
(lp852
(S'MyCo.Capital.PL.Expenses.Travel'
I94
Nta(g5
I-94
Ntasg7
g27
sba(idoubletalk.transac
Transaction
(dp853
g2
I941587200
sg3
(lp854
(S'MyCo.Capital.PL.Expenses.Contractors'
I1500
Nta(g19
F262.5
Nta(g63
F-1762.5
Ntasg7
S'Bill received - Contractor'
sba(idoubletalk.transac
Transaction
(dp855
g2
I941587200
sg3
(lp856
(S'MyCo.Capital.PL.Income.Software'
I-5500
Nta(g19
F-962.49999999999989
Nta(g5
F6462.5
Ntasg7
S'Cash Sale - Product Sales for month'
sba(idoubletalk.transac
Transaction
(dp857
g2
I941673600
sg3
(lp858
(S'MyCo.Capital.PL.Expenses.Travel'
I25
Nta(g5
I-25
Ntasg7
g27
sba(idoubletalk.transac
Transaction
(dp859
g2
I941673600
sg3
(lp860
(S'MyCo.Capital.PL.Expenses.Travel'
I85
Nta(g5
I-85
Ntasg7
g27
sba(idoubletalk.transac
Transaction
(dp861
g2
I941846400
sg3
(lp862
(g63
F1762.5
Nta(g5
F-1762.5
Ntasg7
S'Bill paid - Contractor'
sba(idoubletalk.transac
Transaction
(dp863
g2
I941846400
sg3
(lp864
(S'MyCo.Capital.PL.Income.Consulting'
I-20600
Nta(g19
F-3604.9999999999995
Nta(g111
F24205
Ntasg7
S'Bill raised - Consulting to 3/11/1999'
sba(idoubletalk.transac
Transaction
(dp865
g2
I941932800
sg3
(lp866
(S'MyCo.Capital.PL.Expenses.Travel'
I14
Nta(g5
I-14
Ntasg7
g27
sba(idoubletalk.transac
Transaction
(dp867
g2
I941932800
sg3
(lp868
(S'MyCo.Capital.PL.Expenses.Stationery'
I26
Nta(g5
I-26
Ntasg7
g27
sba(idoubletalk.transac
Transaction
(dp869
g2
I941932800
sg3
(lp870
(S'MyCo.Capital.PL.Expenses.Rent'
I67
Nta(g5
I-67
Ntasg7
g27
sba(idoubletalk.transac
Transaction
(dp871
g2
I941932800
sg3
(lp872
(S'MyCo.Capital.PL.Expenses.Labour'
I57
Nta(g5
I-57
Ntasg7
g27
sba(idoubletalk.transac
Transaction
(dp873
g2
I942105600
sg3
(lp874
(S'MyCo.Capital.PL.Expenses.Travel'
I24
Nta(g5
I-24
Ntasg7
g27
sba(idoubletalk.transac
Transaction
(dp875
g2
I942105600
sg3
(lp876
(S'MyCo.Capital.PL.Expenses.Utilities'
I3
Nta(g5
I-3
Ntasg7
g27
sba(idoubletalk.transac
Transaction
(dp877
g2
I942192000
sg3
(lp878
(S'MyCo.Capital.PL.Expenses.Contractors'
I1500
Nta(g19
F262.5
Nta(g63
F-1762.5
Ntasg7
S'Bill received - Contractor'
sba(idoubletalk.transac
Transaction
(dp879
g2
I942192000
sg3
(lp880
(g111
F-23030
Nta(g5
F23030
Ntasg7
S'Payment received - Consulting to 3/10/1999'
sba(idoubletalk.transac
Transaction
(dp881
g2
I942192000
sg3
(lp882
(S'MyCo.Capital.PL.Expenses.Stationery'
I57
Nta(g5
I-57
Ntasg7
g27
sba(idoubletalk.transac
Transaction
(dp883
g2
I942451200
sg3
(lp884
(g63
F1762.5
Nta(g5
F-1762.5
Ntasg7
S'Bill paid - Contractor'
sba(idoubletalk.transac
Transaction
(dp885
g2
I942451200
sg3
(lp886
(S'MyCo.Capital.PL.Expenses.Rent'
I60
Nta(g5
I-60
Ntasg7
g27
sba(idoubletalk.transac
Transaction
(dp887
g2
I942537600
sg3
(lp888
(S'MyCo.Capital.PL.Expenses.Rent'
I94
Nta(g5
I-94
Ntasg7
g27
sba(idoubletalk.transac
Transaction
(dp889
g2
I942537600
sg3
(lp890
(S'MyCo.Capital.PL.Expenses.Utilities'
I93
Nta(g5
I-93
Ntasg7
g27
sba(idoubletalk.transac
Transaction
(dp891
g2
I942624000
sg3
(lp892
(S'MyCo.Capital.PL.Expenses.Travel'
I78
Nta(g5
I-78
Ntasg7
g27
sba(idoubletalk.transac
Transaction
(dp893
g2
I942796800
sg3
(lp894
(g5
F-1762.5
Nta(g63
F1762.5
Ntasg7
g130
sba(idoubletalk.transac
Transaction
(dp895
g2
I942796800
sg3
(lp896
(S'MyCo.Capital.PL.Expenses.Contractors'
I1500
Nta(g19
F262.5
Nta(g63
F-1762.5
Ntasg7
S'Bill received - Contractor'
sba(idoubletalk.transac
Transaction
(dp897
g2
I942883200
sg3
(lp898
(g62
F1500
Nta(g19
F262.5
Nta(g63
F-1762.5
Ntasg7
g64
sba(idoubletalk.transac
Transaction
(dp899
g2
I943056000
sg3
(lp900
(g63
F1762.5
Nta(g5
F-1762.5
Ntasg7
S'Bill paid - Contractor'
sba(idoubletalk.transac
Transaction
(dp901
g2
I943315200
sg3
(lp902
(S'MyCo.Capital.PL.Expenses.Rent'
I77
Nta(g5
I-77
Ntasg7
g27
sba(idoubletalk.transac
Transaction
(dp903
g2
I943401600
sg3
(lp904
(S'MyCo.Capital.PL.Expenses.Contractors'
I1500
Nta(g19
F262.5
Nta(g63
F-1762.5
Ntasg7
S'Bill received - Contractor'
sba(idoubletalk.transac
Transaction
(dp905
g2
I943488000
sg3
(lp906
(S'MyCo.Capital.PL.Expenses.Wages'
I3000
Nta(g5
I-3000
Ntasg7
S'Salary for Roger'
sba(idoubletalk.transac
Transaction
(dp907
g2
I943488000
sg3
(lp908
(S'MyCo.Capital.PL.Expenses.Wages'
I2000
Nta(g5
I-2000
Ntasg7
S'Salary for Simon'
sba(idoubletalk.transac
Transaction
(dp909
g2
I943488000
sg3
(lp910
(S'MyCo.Capital.PL.Expenses.Wages'
I1500
Nta(g5
I-1500
Ntasg7
S'Salary for Tim'
sba(idoubletalk.transac
Transaction
(dp911
g2
I943488000
sg3
(lp912
(S'MyCo.Capital.PL.Expenses.Wages'
I3000
Nta(g5
I-3000
Ntasg7
S'Salary for Andy'
sba(idoubletalk.transac
Transaction
(dp913
g2
I943488000
sg3
(lp914
(S'MyCo.Capital.PL.Expenses.Wages'
I3000
Nta(g5
I-3000
Ntasg7
S'Salary for Richard'
sba(idoubletalk.transac
Transaction
(dp915
g2
I943488000
sg3
(lp916
(S'MyCo.Capital.PL.Expenses.Travel'
I52
Nta(g5
I-52
Ntasg7
g27
sba(idoubletalk.transac
Transaction
(dp917
g2
I943488000
sg3
(lp918
(S'MyCo.Capital.PL.Expenses.Stationery'
I8
Nta(g5
I-8
Ntasg7
g27
sba(idoubletalk.transac
Transaction
(dp919
g2
I943574400
sg3
(lp920
(S'MyCo.Capital.PL.Expenses.Labour'
I74
Nta(g5
I-74
Ntasg7
g27
sba(idoubletalk.transac
Transaction
(dp921
g2
I943660800
sg3
(lp922
(g63
F1762.5
Nta(g5
F-1762.5
Ntasg7
S'Bill paid - Contractor'
sba(idoubletalk.transac
Transaction
(dp923
g2
I943833600
sg3
(lp924
(S'MyCo.Capital.PL.Expenses.Stationery'
I72
Nta(g5
I-72
Ntasg7
g27
sba(idoubletalk.transac
Transaction
(dp925
g2
I944006400
sg3
(lp926
(g5
F-461.44999999999999
Nta(g95
F407.44
Nta(g169
F54.009999999999998
Ntasg7
g170
sba(idoubletalk.transac
Transaction
(dp927
g2
I944006400
sg3
(lp928
(S'MyCo.Capital.PL.Expenses.Rent'
I1500
Nta(g11
I-1500
Ntasg7
g12
sba(idoubletalk.transac
Transaction
(dp929
g2
I944006400
sg3
(lp930
(g18
F434
Nta(g19
F75.949999999999989
Nta(g5
F-509.95000000000005
Ntasg7
g20
sba(idoubletalk.transac
Transaction
(dp931
g2
I944006400
sg3
(lp932
(g23
F1200
Nta(g19
F210
Nta(g5
F-1410
Ntasg7
g24
sba(idoubletalk.transac
Transaction
(dp933
g2
I944006400
sg3
(lp934
(S'MyCo.Capital.PL.Expenses.Contractors'
I1500
Nta(g19
F262.5
Nta(g63
F-1762.5
Ntasg7
S'Bill received - Contractor'
sba(idoubletalk.transac
Transaction
(dp935
g2
I944006400
sg3
(lp936
(S'MyCo.Capital.PL.Expenses.Rent'
I87
Nta(g5
I-87
Ntasg7
g27
sba(idoubletalk.transac
Transaction
(dp937
g2
I944179200
sg3
(lp938
(S'MyCo.Capital.PL.Income.Software'
I-6050
Nta(g19
F-1058.75
Nta(g5
F7108.75
Ntasg7
S'Cash Sale - Product Sales for month'
sba(idoubletalk.transac
Transaction
(dp939
g2
I944265600
sg3
(lp940
(g63
F1762.5
Nta(g5
F-1762.5
Ntasg7
S'Bill paid - Contractor'
sba(idoubletalk.transac
Transaction
(dp941
g2
I944438400
sg3
(lp942
(S'MyCo.Capital.PL.Income.Consulting'
I-21600
Nta(g19
F-3779.9999999999995
Nta(g111
F25380
Ntasg7
S'Bill raised - Consulting to 3/12/1999'
sba(idoubletalk.transac
Transaction
(dp943
g2
I944438400
sg3
(lp944
(S'MyCo.Capital.PL.Expenses.Utilities'
I15
Nta(g5
I-15
Ntasg7
g27
sba(idoubletalk.transac
Transaction
(dp945
g2
I944611200
sg3
(lp946
(S'MyCo.Capital.PL.Expenses.Contractors'
I1500
Nta(g19
F262.5
Nta(g63
F-1762.5
Ntasg7
S'Bill received - Contractor'
sba(idoubletalk.transac
Transaction
(dp947
g2
I944611200
sg3
(lp948
(S'MyCo.Capital.PL.Expenses.Travel'
I96
Nta(g5
I-96
Ntasg7
g27
sba(idoubletalk.transac
Transaction
(dp949
g2
I944870400
sg3
(lp950
(g63
F1762.5
Nta(g5
F-1762.5
Ntasg7
S'Bill paid - Contractor'
sba(idoubletalk.transac
Transaction
(dp951
g2
I944870400
sg3
(lp952
(g111
F-24205
Nta(g5
F24205
Ntasg7
S'Payment received - Consulting to 3/11/1999'
sba(idoubletalk.transac
Transaction
(dp953
g2
I945043200
sg3
(lp954
(S'MyCo.Capital.PL.Expenses.Utilities'
I8
Nta(g5
I-8
Ntasg7
g27
sba(idoubletalk.transac
Transaction
(dp955
g2
I945043200
sg3
(lp956
(S'MyCo.Capital.PL.Expenses.Stationery'
I54
Nta(g5
I-54
Ntasg7
g27
sba(idoubletalk.transac
Transaction
(dp957
g2
I945216000
sg3
(lp958
(S'MyCo.Capital.PL.Expenses.Contractors'
I1500
Nta(g19
F262.5
Nta(g63
F-1762.5
Ntasg7
S'Bill received - Contractor'
sba(idoubletalk.transac
Transaction
(dp959
g2
I945302400
sg3
(lp960
(S'MyCo.Capital.PL.Expenses.Rent'
I43
Nta(g5
I-43
Ntasg7
g27
sba(idoubletalk.transac
Transaction
(dp961
g2
I945388800
sg3
(lp962
(g5
F-1762.5
Nta(g63
F1762.5
Ntasg7
g130
sba(idoubletalk.transac
Transaction
(dp963
g2
I945388800
sg3
(lp964
(S'MyCo.Capital.PL.Expenses.Stationery'
I62
Nta(g5
I-62
Ntasg7
g27
sba(idoubletalk.transac
Transaction
(dp965
g2
I945475200
sg3
(lp966
(g62
F1500
Nta(g19
F262.5
Nta(g63
F-1762.5
Ntasg7
g64
sba(idoubletalk.transac
Transaction
(dp967
g2
I945475200
sg3
(lp968
(g63
F1762.5
Nta(g5
F-1762.5
Ntasg7
S'Bill paid - Contractor'
sba(idoubletalk.transac
Transaction
(dp969
g2
I945475200
sg3
(lp970
(S'MyCo.Capital.PL.Expenses.Travel'
I23
Nta(g5
I-23
Ntasg7
g27
sba(idoubletalk.transac
Transaction
(dp971
g2
I945561600
sg3
(lp972
(S'MyCo.Capital.PL.Expenses.Stationery'
I27
Nta(g5
I-27
Ntasg7
g27
sba(idoubletalk.transac
Transaction
(dp973
g2
I945561600
sg3
(lp974
(S'MyCo.Capital.PL.Expenses.Travel'
I62
Nta(g5
I-62
Ntasg7
g27
sba(idoubletalk.transac
Transaction
(dp975
g2
I945648000
sg3
(lp976
(S'MyCo.Capital.PL.Expenses.Labour'
I95
Nta(g5
I-95
Ntasg7
g27
sba(idoubletalk.transac
Transaction
(dp977
g2
I945648000
sg3
(lp978
(S'MyCo.Capital.PL.Expenses.Rent'
I41
Nta(g5
I-41
Ntasg7
g27
sba(idoubletalk.transac
Transaction
(dp979
g2
I945734400
sg3
(lp980
(S'MyCo.Capital.PL.Expenses.Travel'
I37
Nta(g5
I-37
Ntasg7
g27
sba(idoubletalk.transac
Transaction
(dp981
g2
I945820800
sg3
(lp982
(S'MyCo.Capital.PL.Expenses.Contractors'
I1500
Nta(g19
F262.5
Nta(g63
F-1762.5
Ntasg7
S'Bill received - Contractor'
sba(idoubletalk.transac
Transaction
(dp983
g2
I945907200
sg3
(lp984
(S'MyCo.Capital.PL.Expenses.Rent'
I40
Nta(g5
I-40
Ntasg7
g27
sba(idoubletalk.transac
Transaction
(dp985
g2
I945993600
sg3
(lp986
(S'MyCo.Capital.PL.Expenses.Rent'
I80
Nta(g5
I-80
Ntasg7
g27
sba(idoubletalk.transac
Transaction
(dp987
g2
I946080000
sg3
(lp988
(S'MyCo.Capital.PL.Expenses.Wages'
I3000
Nta(g5
I-3000
Ntasg7
S'Salary for Roger'
sba(idoubletalk.transac
Transaction
(dp989
g2
I946080000
sg3
(lp990
(S'MyCo.Capital.PL.Expenses.Wages'
I2000
Nta(g5
I-2000
Ntasg7
S'Salary for Simon'
sba(idoubletalk.transac
Transaction
(dp991
g2
I946080000
sg3
(lp992
(S'MyCo.Capital.PL.Expenses.Wages'
I1500
Nta(g5
I-1500
Ntasg7
S'Salary for Tim'
sba(idoubletalk.transac
Transaction
(dp993
g2
I946080000
sg3
(lp994
(S'MyCo.Capital.PL.Expenses.Wages'
I3000
Nta(g5
I-3000
Ntasg7
S'Salary for Andy'
sba(idoubletalk.transac
Transaction
(dp995
g2
I946080000
sg3
(lp996
(S'MyCo.Capital.PL.Expenses.Wages'
I3000
Nta(g5
I-3000
Ntasg7
S'Salary for Richard'
sba(idoubletalk.transac
Transaction
(dp997
g2
I946080000
sg3
(lp998
(g63
F1762.5
Nta(g5
F-1762.5
Ntasg7
S'Bill paid - Contractor'
sba(idoubletalk.transac
Transaction
(dp999
g2
I946080000
sg3
(lp1000
(S'MyCo.Capital.PL.Expenses.Stationery'
I97
Nta(g5
I-97
Ntasg7
g27
sba(idoubletalk.transac
Transaction
(dp1001
g2
I946166400
sg3
(lp1002
(S'MyCo.Capital.PL.Expenses.Stationery'
I42
Nta(g5
I-42
Ntasg7
g27
sba(idoubletalk.transac
Transaction
(dp1003
g2
I946252800
sg3
(lp1004
(S'MyCo.Capital.PL.Expenses.Stationery'
I52
Nta(g5
I-52
Ntasg7
g27
sba(idoubletalk.transac
Transaction
(dp1005
g2
I946252800
sg3
(lp1006
(S'MyCo.Capital.PL.Expenses.Rent'
I26
Nta(g5
I-26
Ntasg7
g27
sba(idoubletalk.transac
Transaction
(dp1007
g2
I946339200
sg3
(lp1008
(S'MyCo.Capital.PL.Expenses.Travel'
I88
Nta(g5
I-88
Ntasg7
g27
sba(idoubletalk.transac
Transaction
(dp1009
g2
I946339200
sg3
(lp1010
(S'MyCo.Capital.PL.Expenses.Stationery'
I86
Nta(g5
I-86
Ntasg7
g27
sba(idoubletalk.transac
Transaction
(dp1011
g2
I946425600
sg3
(lp1012
(S'MyCo.Capital.PL.Expenses.Contractors'
I1500
Nta(g19
F262.5
Nta(g63
F-1762.5
Ntasg7
S'Bill received - Contractor'
sba(idoubletalk.transac
Transaction
(dp1013
g2
I946425600
sg3
(lp1014
(S'MyCo.Capital.PL.Expenses.Rent'
I72
Nta(g5
I-72
Ntasg7
g27
sba(idoubletalk.transac
Transaction
(dp1015
g2
I946512000
sg3
(lp1016
(S'MyCo.Capital.PL.Expenses.Travel'
I97
Nta(g5
I-97
Ntasg7
g27
sba(idoubletalk.transac
Transaction
(dp1017
g2
I946684800
sg3
(lp1018
(g5
F-461.44999999999999
Nta(g95
F410.83999999999997
Nta(g169
F50.609999999999999
Ntasg7
g170
sba(idoubletalk.transac
Transaction
(dp1019
g2
I946684800
sg3
(lp1020
(S'MyCo.Capital.PL.Expenses.Rent'
I1500
Nta(g11
I-1500
Ntasg7
g12
sba(idoubletalk.transac
Transaction
(dp1021
g2
I946684800
sg3
(lp1022
(g11
I4500
Nta(g5
I-4500
Ntasg7
g15
sba(idoubletalk.transac
Transaction
(dp1023
g2
I946684800
sg3
(lp1024
(g18
F630
Nta(g19
F110.25
Nta(g5
F-740.25
Ntasg7
g20
sba(idoubletalk.transac
Transaction
(dp1025
g2
I946684800
sg3
(lp1026
(g23
F1200
Nta(g19
F210
Nta(g5
F-1410
Ntasg7
g24
sba(idoubletalk.transac
Transaction
(dp1027
g2
I946684800
sg3
(lp1028
(g63
F1762.5
Nta(g5
F-1762.5
Ntasg7
S'Bill paid - Contractor'
sba(idoubletalk.transac
Transaction
(dp1029
g2
I946771200
sg3
(lp1030
(S'MyCo.Capital.PL.Expenses.Travel'
I30
Nta(g5
I-30
Ntasg7
g27
sba(idoubletalk.transac
Transaction
(dp1031
g2
I946857600
sg3
(lp1032
(S'MyCo.Capital.PL.Income.Software'
I-6655
Nta(g19
F-1164.625
Nta(g5
F7819.625
Ntasg7
S'Cash Sale - Product Sales for month'
sba(idoubletalk.transac
Transaction
(dp1033
g2
I947030400
sg3
(lp1034
(S'MyCo.Capital.PL.Expenses.Contractors'
I1500
Nta(g19
F262.5
Nta(g63
F-1762.5
Ntasg7
S'Bill received - Contractor'
sba(idoubletalk.transac
Transaction
(dp1035
g2
I947116800
sg3
(lp1036
(S'MyCo.Capital.PL.Income.Consulting'
I-21600
Nta(g19
F-3779.9999999999995
Nta(g111
F25380
Ntasg7
S'Bill raised - Consulting to 3/1/2000'
sba(idoubletalk.transac
Transaction
(dp1037
g2
I947203200
sg3
(lp1038
(S'MyCo.Capital.PL.Expenses.Labour'
I10
Nta(g5
I-10
Ntasg7
g27
sba(idoubletalk.transac
Transaction
(dp1039
g2
I947289600
sg3
(lp1040
(g63
F1762.5
Nta(g5
F-1762.5
Ntasg7
S'Bill paid - Contractor'
sba(idoubletalk.transac
Transaction
(dp1041
g2
I947289600
sg3
(lp1042
(S'MyCo.Capital.PL.Expenses.Stationery'
I15
Nta(g5
I-15
Ntasg7
g27
sba(idoubletalk.transac
Transaction
(dp1043
g2
I947289600
sg3
(lp1044
(S'MyCo.Capital.PL.Expenses.Rent'
I71
Nta(g5
I-71
Ntasg7
g27
sba(idoubletalk.transac
Transaction
(dp1045
g2
I947462400
sg3
(lp1046
(g111
F-25380
Nta(g5
F25380
Ntasg7
S'Payment received - Consulting to 3/12/1999'
sba(idoubletalk.transac
Transaction
(dp1047
g2
I947548800
sg3
(lp1048
(S'MyCo.Capital.PL.Expenses.Utilities'
I21
Nta(g5
I-21
Ntasg7
g27
sba(idoubletalk.transac
Transaction
(dp1049
g2
I947635200
sg3
(lp1050
(S'MyCo.Capital.PL.Expenses.Contractors'
I1500
Nta(g19
F262.5
Nta(g63
F-1762.5
Ntasg7
S'Bill received - Contractor'
sba(idoubletalk.transac
Transaction
(dp1051
g2
I947635200
sg3
(lp1052
(S'MyCo.Capital.PL.Expenses.Travel'
I92
Nta(g5
I-92
Ntasg7
g27
sba(idoubletalk.transac
Transaction
(dp1053
g2
I947894400
sg3
(lp1054
(g63
F1762.5
Nta(g5
F-1762.5
Ntasg7
S'Bill paid - Contractor'
sba(idoubletalk.transac
Transaction
(dp1055
g2
I947894400
sg3
(lp1056
(S'MyCo.Capital.PL.Expenses.Stationery'
I97
Nta(g5
I-97
Ntasg7
g27
sba(idoubletalk.transac
Transaction
(dp1057
g2
I948067200
sg3
(lp1058
(g5
F-1762.5
Nta(g63
F1762.5
Ntasg7
g130
sba(idoubletalk.transac
Transaction
(dp1059
g2
I948067200
sg3
(lp1060
(S'MyCo.Capital.PL.Expenses.Travel'
I2
Nta(g5
I-2
Ntasg7
g27
sba(idoubletalk.transac
Transaction
(dp1061
g2
I948153600
sg3
(lp1062
(g62
F1500
Nta(g19
F262.5
Nta(g63
F-1762.5
Ntasg7
g64
sba(idoubletalk.transac
Transaction
(dp1063
g2
I948153600
sg3
(lp1064
(S'MyCo.Capital.PL.Expenses.Rent'
I96
Nta(g5
I-96
Ntasg7
g27
sba(idoubletalk.transac
Transaction
(dp1065
g2
I948153600
sg3
(lp1066
(S'MyCo.Capital.PL.Expenses.Stationery'
I43
Nta(g5
I-43
Ntasg7
g27
sba(idoubletalk.transac
Transaction
(dp1067
g2
I948240000
sg3
(lp1068
(S'MyCo.Capital.PL.Expenses.Contractors'
I1500
Nta(g19
F262.5
Nta(g63
F-1762.5
Ntasg7
S'Bill received - Contractor'
sba(idoubletalk.transac
Transaction
(dp1069
g2
I948326400
sg3
(lp1070
(S'MyCo.Capital.PL.Expenses.Labour'
I53
Nta(g5
I-53
Ntasg7
g27
sba(idoubletalk.transac
Transaction
(dp1071
g2
I948499200
sg3
(lp1072
(g63
F1762.5
Nta(g5
F-1762.5
Ntasg7
S'Bill paid - Contractor'
sba(idoubletalk.transac
Transaction
(dp1073
g2
I948585600
sg3
(lp1074
(S'MyCo.Capital.PL.Expenses.Travel'
I91
Nta(g5
I-91
Ntasg7
g27
sba(idoubletalk.transac
Transaction
(dp1075
g2
I948672000
sg3
(lp1076
(S'MyCo.Capital.PL.Expenses.Utilities'
I55
Nta(g5
I-55
Ntasg7
g27
sba(idoubletalk.transac
Transaction
(dp1077
g2
I948758400
sg3
(lp1078
(S'MyCo.Capital.PL.Expenses.Wages'
I3000
Nta(g5
I-3000
Ntasg7
S'Salary for Roger'
sba(idoubletalk.transac
Transaction
(dp1079
g2
I948758400
sg3
(lp1080
(S'MyCo.Capital.PL.Expenses.Wages'
I2000
Nta(g5
I-2000
Ntasg7
S'Salary for Simon'
sba(idoubletalk.transac
Transaction
(dp1081
g2
I948758400
sg3
(lp1082
(S'MyCo.Capital.PL.Expenses.Wages'
I1500
Nta(g5
I-1500
Ntasg7
S'Salary for Tim'
sba(idoubletalk.transac
Transaction
(dp1083
g2
I948758400
sg3
(lp1084
(S'MyCo.Capital.PL.Expenses.Wages'
I3000
Nta(g5
I-3000
Ntasg7
S'Salary for Andy'
sba(idoubletalk.transac
Transaction
(dp1085
g2
I948758400
sg3
(lp1086
(S'MyCo.Capital.PL.Expenses.Wages'
I3000
Nta(g5
I-3000
Ntasg7
S'Salary for Richard'
sba(idoubletalk.transac
Transaction
(dp1087
g2
I948758400
sg3
(lp1088
(S'MyCo.Capital.PL.Expenses.Rent'
I70
Nta(g5
I-70
Ntasg7
g27
sba(idoubletalk.transac
Transaction
(dp1089
g2
I948844800
sg3
(lp1090
(S'MyCo.Capital.PL.Expenses.Contractors'
I1500
Nta(g19
F262.5
Nta(g63
F-1762.5
Ntasg7
S'Bill received - Contractor'
sba(idoubletalk.transac
Transaction
(dp1091
g2
I948844800
sg3
(lp1092
(S'MyCo.Capital.PL.Expenses.Stationery'
I78
Nta(g5
I-78
Ntasg7
g27
sba(idoubletalk.transac
Transaction
(dp1093
g2
I949017600
sg3
(lp1094
(S'MyCo.Capital.PL.Expenses.Stationery'
I54
Nta(g5
I-54
Ntasg7
g27
sba(idoubletalk.transac
Transaction
(dp1095
g2
I949104000
sg3
(lp1096
(g63
F1762.5
Nta(g5
F-1762.5
Ntasg7
S'Bill paid - Contractor'
sba(idoubletalk.transac
Transaction
(dp1097
g2
I949190400
sg3
(lp1098
(S'MyCo.Capital.PL.Expenses.Stationery'
I10
Nta(g5
I-10
Ntasg7
g27
sba(idoubletalk.transac
Transaction
(dp1099
g2
I949190400
sg3
(lp1100
(S'MyCo.Capital.PL.Expenses.Rent'
I87
Nta(g5
I-87
Ntasg7
g27
sba(idoubletalk.transac
Transaction
(dp1101
g2
I949363200
sg3
(lp1102
(g5
F-461.44999999999999
Nta(g95
F414.25999999999999
Nta(g169
F47.189999999999998
Ntasg7
g170
sba(idoubletalk.transac
Transaction
(dp1103
g2
I949363200
sg3
(lp1104
(S'MyCo.Capital.PL.Expenses.Rent'
I1500
Nta(g11
I-1500
Ntasg7
g12
sba(idoubletalk.transac
Transaction
(dp1105
g2
I949363200
sg3
(lp1106
(g18
F570
Nta(g19
F99.75
Nta(g5
F-669.75
Ntasg7
g20
sba(idoubletalk.transac
Transaction
(dp1107
g2
I949363200
sg3
(lp1108
(g23
F1200
Nta(g19
F210
Nta(g5
F-1410
Ntasg7
g24
sba(idoubletalk.transac
Transaction
(dp1109
g2
I949363200
sg3
(lp1110
(S'MyCo.Capital.PL.Expenses.Rent'
I55
Nta(g5
I-55
Ntasg7
g27
sba(idoubletalk.transac
Transaction
(dp1111
g2
I949449600
sg3
(lp1112
(S'MyCo.Capital.PL.Expenses.Contractors'
I1500
Nta(g19
F262.5
Nta(g63
F-1762.5
Ntasg7
S'Bill received - Contractor'
sba(idoubletalk.transac
Transaction
(dp1113
g2
I949449600
sg3
(lp1114
(S'MyCo.Capital.PL.Expenses.Utilities'
I48
Nta(g5
I-48
Ntasg7
g27
sba(idoubletalk.transac
Transaction
(dp1115
g2
I949536000
sg3
(lp1116
(S'MyCo.Capital.PL.Income.Software'
F-7320.5
Nta(g19
F-1281.0874999999999
Nta(g5
F8601.5874999999996
Ntasg7
S'Cash Sale - Product Sales for month'
sba(idoubletalk.transac
Transaction
(dp1117
g2
I949536000
sg3
(lp1118
(S'MyCo.Capital.PL.Expenses.Rent'
I47
Nta(g5
I-47
Ntasg7
g27
sba(idoubletalk.transac
Transaction
(dp1119
g2
I949708800
sg3
(lp1120
(g63
F1762.5
Nta(g5
F-1762.5
Ntasg7
S'Bill paid - Contractor'
sba(idoubletalk.transac
Transaction
(dp1121
g2
I949795200
sg3
(lp1122
(S'MyCo.Capital.PL.Income.Consulting'
I-21600
Nta(g19
F-3779.9999999999995
Nta(g111
F25380
Ntasg7
S'Bill raised - Consulting to 3/2/2000'
sba(idoubletalk.transac
Transaction
(dp1123
g2
I949795200
sg3
(lp1124
(S'MyCo.Capital.PL.Expenses.Utilities'
I64
Nta(g5
I-64
Ntasg7
g27
sba(idoubletalk.transac
Transaction
(dp1125
g2
I949968000
sg3
(lp1126
(S'MyCo.Capital.PL.Expenses.Labour'
I47
Nta(g5
I-47
Ntasg7
g27
sba(idoubletalk.transac
Transaction
(dp1127
g2
I949968000
sg3
(lp1128
(S'MyCo.Capital.PL.Expenses.Travel'
I43
Nta(g5
I-43
Ntasg7
g27
sba(idoubletalk.transac
Transaction
(dp1129
g2
I950054400
sg3
(lp1130
(S'MyCo.Capital.PL.Expenses.Contractors'
I1500
Nta(g19
F262.5
Nta(g63
F-1762.5
Ntasg7
S'Bill received - Contractor'
sba(idoubletalk.transac
Transaction
(dp1131
g2
I950140800
sg3
(lp1132
(g111
F-25380
Nta(g5
F25380
Ntasg7
S'Payment received - Consulting to 3/1/2000'
sba(idoubletalk.transac
Transaction
(dp1133
g2
I950140800
sg3
(lp1134
(S'MyCo.Capital.PL.Expenses.Utilities'
I78
Nta(g5
I-78
Ntasg7
g27
sba(idoubletalk.transac
Transaction
(dp1135
g2
I950140800
sg3
(lp1136
(S'MyCo.Capital.PL.Expenses.Utilities'
I71
Nta(g5
I-71
Ntasg7
g27
sba(idoubletalk.transac
Transaction
(dp1137
g2
I950313600
sg3
(lp1138
(g63
F1762.5
Nta(g5
F-1762.5
Ntasg7
S'Bill paid - Contractor'
sba(idoubletalk.transac
Transaction
(dp1139
g2
I950313600
sg3
(lp1140
(S'MyCo.Capital.PL.Expenses.Labour'
I74
Nta(g5
I-74
Ntasg7
g27
sba(idoubletalk.transac
Transaction
(dp1141
g2
I950400000
sg3
(lp1142
(S'MyCo.Capital.PL.Expenses.Utilities'
I20
Nta(g5
I-20
Ntasg7
g27
sba(idoubletalk.transac
Transaction
(dp1143
g2
I950400000
sg3
(lp1144
(S'MyCo.Capital.PL.Expenses.Rent'
I37
Nta(g5
I-37
Ntasg7
g27
sba(idoubletalk.transac
Transaction
(dp1145
g2
I950659200
sg3
(lp1146
(S'MyCo.Capital.PL.Expenses.Contractors'
I1500
Nta(g19
F262.5
Nta(g63
F-1762.5
Ntasg7
S'Bill received - Contractor'
sba(idoubletalk.transac
Transaction
(dp1147
g2
I950745600
sg3
(lp1148
(g5
F-1762.5
Nta(g63
F1762.5
Ntasg7
g130
sba(idoubletalk.transac
Transaction
(dp1149
g2
I950745600
sg3
(lp1150
(S'MyCo.Capital.PL.Expenses.Stationery'
I10
Nta(g5
I-10
Ntasg7
g27
sba(idoubletalk.transac
Transaction
(dp1151
g2
I950832000
sg3
(lp1152
(g62
F1500
Nta(g19
F262.5
Nta(g63
F-1762.5
Ntasg7
g64
sba(idoubletalk.transac
Transaction
(dp1153
g2
I950918400
sg3
(lp1154
(g63
F1762.5
Nta(g5
F-1762.5
Ntasg7
S'Bill paid - Contractor'
sba(idoubletalk.transac
Transaction
(dp1155
g2
I951091200
sg3
(lp1156
(S'MyCo.Capital.PL.Expenses.Rent'
I61
Nta(g5
I-61
Ntasg7
g27
sba(idoubletalk.transac
Transaction
(dp1157
g2
I951264000
sg3
(lp1158
(S'MyCo.Capital.PL.Expenses.Contractors'
I1500
Nta(g19
F262.5
Nta(g63
F-1762.5
Ntasg7
S'Bill received - Contractor'
sba(idoubletalk.transac
Transaction
(dp1159
g2
I951350400
sg3
(lp1160
(S'MyCo.Capital.PL.Expenses.Utilities'
I38
Nta(g5
I-38
Ntasg7
g27
sba(idoubletalk.transac
Transaction
(dp1161
g2
I951436800
sg3
(lp1162
(S'MyCo.Capital.PL.Expenses.Wages'
I3000
Nta(g5
I-3000
Ntasg7
S'Salary for Roger'
sba(idoubletalk.transac
Transaction
(dp1163
g2
I951436800
sg3
(lp1164
(S'MyCo.Capital.PL.Expenses.Wages'
I2000
Nta(g5
I-2000
Ntasg7
S'Salary for Simon'
sba(idoubletalk.transac
Transaction
(dp1165
g2
I951436800
sg3
(lp1166
(S'MyCo.Capital.PL.Expenses.Wages'
I1500
Nta(g5
I-1500
Ntasg7
S'Salary for Tim'
sba(idoubletalk.transac
Transaction
(dp1167
g2
I951436800
sg3
(lp1168
(S'MyCo.Capital.PL.Expenses.Wages'
I3000
Nta(g5
I-3000
Ntasg7
S'Salary for Andy'
sba(idoubletalk.transac
Transaction
(dp1169
g2
I951436800
sg3
(lp1170
(S'MyCo.Capital.PL.Expenses.Wages'
I3000
Nta(g5
I-3000
Ntasg7
S'Salary for Richard'
sba(idoubletalk.transac
Transaction
(dp1171
g2
I951436800
sg3
(lp1172
(S'MyCo.Capital.PL.Expenses.Utilities'
I47
Nta(g5
I-47
Ntasg7
g27
sba(idoubletalk.transac
Transaction
(dp1173
g2
I951523200
sg3
(lp1174
(g63
F1762.5
Nta(g5
F-1762.5
Ntasg7
S'Bill paid - Contractor'
sba(idoubletalk.transac
Transaction
(dp1175
g2
I951523200
sg3
(lp1176
(S'MyCo.Capital.PL.Expenses.Rent'
I36
Nta(g5
I-36
Ntasg7
g27
sba(idoubletalk.transac
Transaction
(dp1177
g2
I951609600
sg3
(lp1178
(S'MyCo.Capital.PL.Expenses.Labour'
I82
Nta(g5
I-82
Ntasg7
g27
sba(idoubletalk.transac
Transaction
(dp1179
g2
I951696000
sg3
(lp1180
(S'MyCo.Capital.PL.Expenses.Utilities'
I1
Nta(g5
I-1
Ntasg7
g27
sba(idoubletalk.transac
Transaction
(dp1181
g2
I951696000
sg3
(lp1182
(S'MyCo.Capital.PL.Expenses.Stationery'
I5
Nta(g5
I-5
Ntasg7
g27
sba(idoubletalk.transac
Transaction
(dp1183
g2
I951696000
sg3
(lp1184
(S'MyCo.Capital.PL.Expenses.Utilities'
I24
Nta(g5
I-24
Ntasg7
g27
sba(idoubletalk.transac
Transaction
(dp1185
g2
I951868800
sg3
(lp1186
(g5
F-461.44999999999999
Nta(g95
F417.71999999999997
Nta(g169
F43.730000000000004
Ntasg7
g170
sba(idoubletalk.transac
Transaction
(dp1187
g2
I951868800
sg3
(lp1188
(S'MyCo.Capital.PL.Expenses.Rent'
I1500
Nta(g11
I-1500
Ntasg7
g12
sba(idoubletalk.transac
Transaction
(dp1189
g2
I951868800
sg3
(lp1190
(g18
F531
Nta(g19
F92.924999999999997
Nta(g5
F-623.92500000000007
Ntasg7
g20
sba(idoubletalk.transac
Transaction
(dp1191
g2
I951868800
sg3
(lp1192
(g23
F1200
Nta(g19
F210
Nta(g5
F-1410
Ntasg7
g24
sba(idoubletalk.transac
Transaction
(dp1193
g2
I951868800
sg3
(lp1194
(S'MyCo.Capital.PL.Expenses.Contractors'
I1500
Nta(g19
F262.5
Nta(g63
F-1762.5
Ntasg7
S'Bill received - Contractor'
sba(idoubletalk.transac
Transaction
(dp1195
g2
I951868800
sg3
(lp1196
(S'MyCo.Capital.PL.Expenses.Stationery'
I14
Nta(g5
I-14
Ntasg7
g27
sba(idoubletalk.transac
Transaction
(dp1197
g2
I951868800
sg3
(lp1198
(S'MyCo.Capital.PL.Expenses.Stationery'
I35
Nta(g5
I-35
Ntasg7
g27
sba(idoubletalk.transac
Transaction
(dp1199
g2
I951955200
sg3
(lp1200
(S'MyCo.Capital.PL.Expenses.Utilities'
I41
Nta(g5
I-41
Ntasg7
g27
sba(idoubletalk.transac
Transaction
(dp1201
g2
I952041600
sg3
(lp1202
(S'MyCo.Capital.PL.Income.Software'
F-8052.5500000000002
Nta(g19
F-1409.19625
Nta(g5
F9461.7462500000001
Ntasg7
S'Cash Sale - Product Sales for month'
sba(idoubletalk.transac
Transaction
(dp1203
g2
I952128000
sg3
(lp1204
(g63
F1762.5
Nta(g5
F-1762.5
Ntasg7
S'Bill paid - Contractor'
sba(idoubletalk.transac
Transaction
(dp1205
g2
I952128000
sg3
(lp1206
(S'MyCo.Capital.PL.Expenses.Rent'
I82
Nta(g5
I-82
Ntasg7
g27
sba(idoubletalk.transac
Transaction
(dp1207
g2
I952214400
sg3
(lp1208
(S'MyCo.Capital.PL.Expenses.Stationery'
I25
Nta(g5
I-25
Ntasg7
g27
sba(idoubletalk.transac
Transaction
(dp1209
g2
I952300800
sg3
(lp1210
(S'MyCo.Capital.PL.Income.Consulting'
I-21600
Nta(g19
F-3779.9999999999995
Nta(g111
F25380
Ntasg7
S'Bill raised - Consulting to 3/3/2000'
sba(idoubletalk.transac
Transaction
(dp1211
g2
I952387200
sg3
(lp1212
(S'MyCo.Capital.PL.Expenses.Travel'
I18
Nta(g5
I-18
Ntasg7
g27
sba(idoubletalk.transac
Transaction
(dp1213
g2
I952473600
sg3
(lp1214
(S'MyCo.Capital.PL.Expenses.Contractors'
I1500
Nta(g19
F262.5
Nta(g63
F-1762.5
Ntasg7
S'Bill received - Contractor'
sba(idoubletalk.transac
Transaction
(dp1215
g2
I952646400
sg3
(lp1216
(S'MyCo.Capital.PL.Expenses.Stationery'
I83
Nta(g5
I-83
Ntasg7
g27
sba(idoubletalk.transac
Transaction
(dp1217
g2
I952646400
sg3
(lp1218
(S'MyCo.Capital.PL.Expenses.Labour'
I47
Nta(g5
I-47
Ntasg7
g27
sba(idoubletalk.transac
Transaction
(dp1219
g2
I952646400
sg3
(lp1220
(S'MyCo.Capital.PL.Expenses.Travel'
I93
Nta(g5
I-93
Ntasg7
g27
sba(idoubletalk.transac
Transaction
(dp1221
g2
I952732800
sg3
(lp1222
(g63
F1762.5
Nta(g5
F-1762.5
Ntasg7
S'Bill paid - Contractor'
sba(idoubletalk.transac
Transaction
(dp1223
g2
I952819200
sg3
(lp1224
(g111
F-25380
Nta(g5
F25380
Ntasg7
S'Payment received - Consulting to 3/2/2000'
sba(idoubletalk.transac
Transaction
(dp1225
g2
I952819200
sg3
(lp1226
(S'MyCo.Capital.PL.Expenses.Rent'
I78
Nta(g5
I-78
Ntasg7
g27
sba(idoubletalk.transac
Transaction
(dp1227
g2
I952992000
sg3
(lp1228
(S'MyCo.Capital.PL.Expenses.Utilities'
I13
Nta(g5
I-13
Ntasg7
g27
sba(idoubletalk.transac
Transaction
(dp1229
g2
I953078400
sg3
(lp1230
(S'MyCo.Capital.PL.Expenses.Contractors'
I1500
Nta(g19
F262.5
Nta(g63
F-1762.5
Ntasg7
S'Bill received - Contractor'
sba(idoubletalk.transac
Transaction
(dp1231
g2
I953164800
sg3
(lp1232
(S'MyCo.Capital.PL.Expenses.Labour'
I41
Nta(g5
I-41
Ntasg7
g27
sba(idoubletalk.transac
Transaction
(dp1233
g2
I953251200
sg3
(lp1234
(g5
F-1762.5
Nta(g63
F1762.5
Ntasg7
g130
sba(idoubletalk.transac
Transaction
(dp1235
g2
I953337600
sg3
(lp1236
(g62
F1500
Nta(g19
F262.5
Nta(g63
F-1762.5
Ntasg7
g64
sba(idoubletalk.transac
Transaction
(dp1237
g2
I953337600
sg3
(lp1238
(g63
F1762.5
Nta(g5
F-1762.5
Ntasg7
S'Bill paid - Contractor'
sba(idoubletalk.transac
Transaction
(dp1239
g2
I953337600
sg3
(lp1240
(S'MyCo.Capital.PL.Expenses.Utilities'
I24
Nta(g5
I-24
Ntasg7
g27
sba(idoubletalk.transac
Transaction
(dp1241
g2
I953510400
sg3
(lp1242
(S'MyCo.Capital.PL.Expenses.Rent'
I42
Nta(g5
I-42
Ntasg7
g27
sba(idoubletalk.transac
Transaction
(dp1243
g2
I953683200
sg3
(lp1244
(S'MyCo.Capital.PL.Expenses.Contractors'
I1500
Nta(g19
F262.5
Nta(g63
F-1762.5
Ntasg7
S'Bill received - Contractor'
sba(idoubletalk.transac
Transaction
(dp1245
g2
I953683200
sg3
(lp1246
(S'MyCo.Capital.PL.Expenses.Labour'
I53
Nta(g5
I-53
Ntasg7
g27
sba(idoubletalk.transac
Transaction
(dp1247
g2
I953769600
sg3
(lp1248
(S'MyCo.Capital.PL.Expenses.Travel'
I30
Nta(g5
I-30
Ntasg7
g27
sba(idoubletalk.transac
Transaction
(dp1249
g2
I953856000
sg3
(lp1250
(S'MyCo.Capital.PL.Expenses.Labour'
I3
Nta(g5
I-3
Ntasg7
g27
sba(idoubletalk.transac
Transaction
(dp1251
g2
I953942400
sg3
(lp1252
(S'MyCo.Capital.PL.Expenses.Wages'
I3000
Nta(g5
I-3000
Ntasg7
S'Salary for Roger'
sba(idoubletalk.transac
Transaction
(dp1253
g2
I953942400
sg3
(lp1254
(S'MyCo.Capital.PL.Expenses.Wages'
I2000
Nta(g5
I-2000
Ntasg7
S'Salary for Simon'
sba(idoubletalk.transac
Transaction
(dp1255
g2
I953942400
sg3
(lp1256
(S'MyCo.Capital.PL.Expenses.Wages'
I1500
Nta(g5
I-1500
Ntasg7
S'Salary for Tim'
sba(idoubletalk.transac
Transaction
(dp1257
g2
I953942400
sg3
(lp1258
(S'MyCo.Capital.PL.Expenses.Wages'
I3000
Nta(g5
I-3000
Ntasg7
S'Salary for Andy'
sba(idoubletalk.transac
Transaction
(dp1259
g2
I953942400
sg3
(lp1260
(S'MyCo.Capital.PL.Expenses.Wages'
I3000
Nta(g5
I-3000
Ntasg7
S'Salary for Richard'
sba(idoubletalk.transac
Transaction
(dp1261
g2
I953942400
sg3
(lp1262
(g63
F1762.5
Nta(g5
F-1762.5
Ntasg7
S'Bill paid - Contractor'
sba(idoubletalk.transac
Transaction
(dp1263
g2
I953942400
sg3
(lp1264
(S'MyCo.Capital.PL.Expenses.Stationery'
I65
Nta(g5
I-65
Ntasg7
g27
sba(idoubletalk.transac
Transaction
(dp1265
g2
I954115200
sg3
(lp1266
(S'MyCo.Capital.PL.Expenses.Labour'
I51
Nta(g5
I-51
Ntasg7
g27
sba(idoubletalk.transac
Transaction
(dp1267
g2
I954288000
sg3
(lp1268
(S'MyCo.Capital.PL.Expenses.Contractors'
I1500
Nta(g19
F262.5
Nta(g63
F-1762.5
Ntasg7
S'Bill received - Contractor'
sba(idoubletalk.transac
Transaction
(dp1269
g2
I954374400
sg3
(lp1270
(S'MyCo.Capital.PL.Expenses.Labour'
I100
Nta(g5
I-100
Ntasg7
g27
sba(idoubletalk.transac
Transaction
(dp1271
g2
I954460800
sg3
(lp1272
(S'MyCo.Capital.PL.Expenses.Stationery'
I64
Nta(g5
I-64
Ntasg7
g27
sba(idoubletalk.transac
Transaction
(dp1273
g2
I954547200
sg3
(lp1274
(g5
F-461.44999999999999
Nta(g95
F421.19999999999999
Nta(g169
F40.25
Ntasg7
g170
sba(idoubletalk.transac
Transaction
(dp1275
g2
I954547200
sg3
(lp1276
(S'MyCo.Capital.PL.Expenses.Rent'
I1500
Nta(g11
I-1500
Ntasg7
g12
sba(idoubletalk.transac
Transaction
(dp1277
g2
I954547200
sg3
(lp1278
(g11
I4500
Nta(g5
I-4500
Ntasg7
g15
sba(idoubletalk.transac
Transaction
(dp1279
g2
I954547200
sg3
(lp1280
(g18
F494
Nta(g19
F86.449999999999989
Nta(g5
F-580.45000000000005
Ntasg7
g20
sba(idoubletalk.transac
Transaction
(dp1281
g2
I954547200
sg3
(lp1282
(g23
F1200
Nta(g19
F210
Nta(g5
F-1410
Ntasg7
g24
sba(idoubletalk.transac
Transaction
(dp1283
g2
I954547200
sg3
(lp1284
(g63
F1762.5
Nta(g5
F-1762.5
Ntasg7
S'Bill paid - Contractor'
sba(idoubletalk.transac
Transaction
(dp1285
g2
I954547200
sg3
(lp1286
(S'MyCo.Capital.PL.Expenses.Labour'
I8
Nta(g5
I-8
Ntasg7
g27
sba(idoubletalk.transac
Transaction
(dp1287
g2
I954720000
sg3
(lp1288
(S'MyCo.Capital.PL.Income.Software'
F-17715.610000000001
Nta(g19
F-3100.2317499999999
Nta(g5
F20815.84175
Ntasg7
S'Cash Sale - Product Sales for month'
sba(idoubletalk.transac
Transaction
(dp1289
g2
I954720000
sg3
(lp1290
(S'MyCo.Capital.PL.Expenses.Travel'
I5
Nta(g5
I-5
Ntasg7
g27
sba(idoubletalk.transac
Transaction
(dp1291
g2
I954720000
sg3
(lp1292
(S'MyCo.Capital.PL.Expenses.Utilities'
I79
Nta(g5
I-79
Ntasg7
g27
sba(idoubletalk.transac
Transaction
(dp1293
g2
I954892800
sg3
(lp1294
(S'MyCo.Capital.PL.Expenses.Contractors'
I1500
Nta(g19
F262.5
Nta(g63
F-1762.5
Ntasg7
S'Bill received - Contractor'
sba(idoubletalk.transac
Transaction
(dp1295
g2
I954979200
sg3
(lp1296
(S'MyCo.Capital.PL.Income.Consulting'
I-21600
Nta(g19
F-3779.9999999999995
Nta(g111
F25380
Ntasg7
S'Bill raised - Consulting to 3/4/2000'
sba(idoubletalk.transac
Transaction
(dp1297
g2
I955065600
sg3
(lp1298
(S'MyCo.Capital.PL.Expenses.Travel'
I31
Nta(g5
I-31
Ntasg7
g27
sba(idoubletalk.transac
Transaction
(dp1299
g2
I955152000
sg3
(lp1300
(g63
F1762.5
Nta(g5
F-1762.5
Ntasg7
S'Bill paid - Contractor'
sba(idoubletalk.transac
Transaction
(dp1301
g2
I955324800
sg3
(lp1302
(g111
F-25380
Nta(g5
F25380
Ntasg7
S'Payment received - Consulting to 3/3/2000'
sba(idoubletalk.transac
Transaction
(dp1303
g2
I955411200
sg3
(lp1304
(S'MyCo.Capital.PL.Expenses.Travel'
I16
Nta(g5
I-16
Ntasg7
g27
sba(idoubletalk.transac
Transaction
(dp1305
g2
I955411200
sg3
(lp1306
(S'MyCo.Capital.PL.Expenses.Utilities'
I6
Nta(g5
I-6
Ntasg7
g27
sba(idoubletalk.transac
Transaction
(dp1307
g2
I955497600
sg3
(lp1308
(S'MyCo.Capital.PL.Expenses.Contractors'
I1500
Nta(g19
F262.5
Nta(g63
F-1762.5
Ntasg7
S'Bill received - Contractor'
sba(idoubletalk.transac
Transaction
(dp1309
g2
I955584000
sg3
(lp1310
(S'MyCo.Capital.PL.Expenses.Labour'
I84
Nta(g5
I-84
Ntasg7
g27
sba(idoubletalk.transac
Transaction
(dp1311
g2
I955756800
sg3
(lp1312
(g63
F1762.5
Nta(g5
F-1762.5
Ntasg7
S'Bill paid - Contractor'
sba(idoubletalk.transac
Transaction
(dp1313
g2
I955929600
sg3
(lp1314
(g5
F-1762.5
Nta(g63
F1762.5
Ntasg7
g130
sba(idoubletalk.transac
Transaction
(dp1315
g2
I955929600
sg3
(lp1316
(S'MyCo.Capital.PL.Expenses.Travel'
I83
Nta(g5
I-83
Ntasg7
g27
sba(idoubletalk.transac
Transaction
(dp1317
g2
I956016000
sg3
(lp1318
(g62
F1500
Nta(g19
F262.5
Nta(g63
F-1762.5
Ntasg7
g64
sba(idoubletalk.transac
Transaction
(dp1319
g2
I956102400
sg3
(lp1320
(S'MyCo.Capital.PL.Expenses.Contractors'
I1500
Nta(g19
F262.5
Nta(g63
F-1762.5
Ntasg7
S'Bill received - Contractor'
sba(idoubletalk.transac
Transaction
(dp1321
g2
I956188800
sg3
(lp1322
(S'MyCo.Capital.PL.Expenses.Labour'
I72
Nta(g5
I-72
Ntasg7
g27
sba(idoubletalk.transac
Transaction
(dp1323
g2
I956361600
sg3
(lp1324
(g63
F1762.5
Nta(g5
F-1762.5
Ntasg7
S'Bill paid - Contractor'
sba(idoubletalk.transac
Transaction
(dp1325
g2
I956534400
sg3
(lp1326
(S'MyCo.Capital.PL.Expenses.Rent'
I58
Nta(g5
I-58
Ntasg7
g27
sba(idoubletalk.transac
Transaction
(dp1327
g2
I956620800
sg3
(lp1328
(S'MyCo.Capital.PL.Expenses.Wages'
I3000
Nta(g5
I-3000
Ntasg7
S'Salary for Roger'
sba(idoubletalk.transac
Transaction
(dp1329
g2
I956620800
sg3
(lp1330
(S'MyCo.Capital.PL.Expenses.Wages'
I2000
Nta(g5
I-2000
Ntasg7
S'Salary for Simon'
sba(idoubletalk.transac
Transaction
(dp1331
g2
I956620800
sg3
(lp1332
(S'MyCo.Capital.PL.Expenses.Wages'
I1500
Nta(g5
I-1500
Ntasg7
S'Salary for Tim'
sba(idoubletalk.transac
Transaction
(dp1333
g2
I956620800
sg3
(lp1334
(S'MyCo.Capital.PL.Expenses.Wages'
I3000
Nta(g5
I-3000
Ntasg7
S'Salary for Andy'
sba(idoubletalk.transac
Transaction
(dp1335
g2
I956620800
sg3
(lp1336
(S'MyCo.Capital.PL.Expenses.Wages'
I3000
Nta(g5
I-3000
Ntasg7
S'Salary for Richard'
sba(idoubletalk.transac
Transaction
(dp1337
g2
I956620800
sg3
(lp1338
(S'MyCo.Capital.PL.Expenses.Utilities'
I53
Nta(g5
I-53
Ntasg7
g27
sba(idoubletalk.transac
Transaction
(dp1339
g2
I956707200
sg3
(lp1340
(S'MyCo.Capital.PL.Expenses.Contractors'
I1500
Nta(g19
F262.5
Nta(g63
F-1762.5
Ntasg7
S'Bill received - Contractor'
sba(idoubletalk.transac
Transaction
(dp1341
g2
I956707200
sg3
(lp1342
(S'MyCo.Capital.PL.Expenses.Rent'
I63
Nta(g5
I-63
Ntasg7
g27
sba(idoubletalk.transac
Transaction
(dp1343
g2
I956966400
sg3
(lp1344
(g63
F1762.5
Nta(g5
F-1762.5
Ntasg7
S'Bill paid - Contractor'
sba(idoubletalk.transac
Transaction
(dp1345
g2
I957052800
sg3
(lp1346
(S'MyCo.Capital.PL.Expenses.Rent'
I85
Nta(g5
I-85
Ntasg7
g27
sba(idoubletalk.transac
Transaction
(dp1347
g2
I957139200
sg3
(lp1348
(g5
F-461.44999999999999
Nta(g95
F424.70999999999998
Nta(g169
F36.740000000000002
Ntasg7
g170
sba(idoubletalk.transac
Transaction
(dp1349
g2
I957139200
sg3
(lp1350
(S'MyCo.Capital.PL.Expenses.Rent'
I1500
Nta(g11
I-1500
Ntasg7
g12
sba(idoubletalk.transac
Transaction
(dp1351
g2
I957139200
sg3
(lp1352
(g18
F540
Nta(g19
F94.5
Nta(g5
F-634.5
Ntasg7
g20
sba(idoubletalk.transac
Transaction
(dp1353
g2
I957139200
sg3
(lp1354
(g23
F1200
Nta(g19
F210
Nta(g5
F-1410
Ntasg7
g24
sba(idoubletalk.transac
Transaction
(dp1355
g2
I957139200
sg3
(lp1356
(S'MyCo.Capital.PL.Expenses.Stationery'
I59
Nta(g5
I-59
Ntasg7
g27
sba(idoubletalk.transac
Transaction
(dp1357
g2
I957139200
sg3
(lp1358
(S'MyCo.Capital.PL.Expenses.Stationery'
I14
Nta(g5
I-14
Ntasg7
g27
sba(idoubletalk.transac
Transaction
(dp1359
g2
I957225600
sg3
(lp1360
(S'MyCo.Capital.PL.Expenses.Utilities'
I68
Nta(g5
I-68
Ntasg7
g27
sba(idoubletalk.transac
Transaction
(dp1361
g2
I957312000
sg3
(lp1362
(S'MyCo.Capital.PL.Expenses.Contractors'
I1500
Nta(g19
F262.5
Nta(g63
F-1762.5
Ntasg7
S'Bill received - Contractor'
sba(idoubletalk.transac
Transaction
(dp1363
g2
I957312000
sg3
(lp1364
(S'MyCo.Capital.PL.Income.Software'
F-19487.169999999998
Nta(g19
F-3410.2547499999996
Nta(g5
F22897.424749999998
Ntasg7
S'Cash Sale - Product Sales for month'
sba(idoubletalk.transac
Transaction
(dp1365
g2
I957312000
sg3
(lp1366
(S'MyCo.Capital.PL.Expenses.Labour'
I51
Nta(g5
I-51
Ntasg7
g27
sba(idoubletalk.transac
Transaction
(dp1367
g2
I957398400
sg3
(lp1368
(S'MyCo.Capital.PL.Expenses.Stationery'
I7
Nta(g5
I-7
Ntasg7
g27
sba(idoubletalk.transac
Transaction
(dp1369
g2
I957484800
sg3
(lp1370
(S'MyCo.Capital.PL.Expenses.Stationery'
I95
Nta(g5
I-95
Ntasg7
g27
sba(idoubletalk.transac
Transaction
(dp1371
g2
I957571200
sg3
(lp1372
(g63
F1762.5
Nta(g5
F-1762.5
Ntasg7
S'Bill paid - Contractor'
sba(idoubletalk.transac
Transaction
(dp1373
g2
I957571200
sg3
(lp1374
(S'MyCo.Capital.PL.Income.Consulting'
I-21600
Nta(g19
F-3779.9999999999995
Nta(g111
F25380
Ntasg7
S'Bill raised - Consulting to 3/5/2000'
sba(idoubletalk.transac
Transaction
(dp1375
g2
I957657600
sg3
(lp1376
(S'MyCo.Capital.PL.Expenses.Travel'
I57
Nta(g5
I-57
Ntasg7
g27
sba(idoubletalk.transac
Transaction
(dp1377
g2
I957657600
sg3
(lp1378
(S'MyCo.Capital.PL.Expenses.Rent'
I78
Nta(g5
I-78
Ntasg7
g27
sba(idoubletalk.transac
Transaction
(dp1379
g2
I957657600
sg3
(lp1380
(S'MyCo.Capital.PL.Expenses.Labour'
I43
Nta(g5
I-43
Ntasg7
g27
sba(idoubletalk.transac
Transaction
(dp1381
g2
I957744000
sg3
(lp1382
(S'MyCo.Capital.PL.Expenses.Stationery'
I11
Nta(g5
I-11
Ntasg7
g27
sba(idoubletalk.transac
Transaction
(dp1383
g2
I957916800
sg3
(lp1384
(S'MyCo.Capital.PL.Expenses.Contractors'
I1500
Nta(g19
F262.5
Nta(g63
F-1762.5
Ntasg7
S'Bill received - Contractor'
sba(idoubletalk.transac
Transaction
(dp1385
g2
I957916800
sg3
(lp1386
(S'MyCo.Capital.PL.Expenses.Rent'
I11
Nta(g5
I-11
Ntasg7
g27
sba(idoubletalk.transac
Transaction
(dp1387
g2
I958003200
sg3
(lp1388
(g111
F-25380
Nta(g5
F25380
Ntasg7
S'Payment received - Consulting to 3/4/2000'
sba(idoubletalk.transac
Transaction
(dp1389
g2
I958176000
sg3
(lp1390
(g63
F1762.5
Nta(g5
F-1762.5
Ntasg7
S'Bill paid - Contractor'
sba(idoubletalk.transac
Transaction
(dp1391
g2
I958262400
sg3
(lp1392
(S'MyCo.Capital.PL.Expenses.Rent'
I93
Nta(g5
I-93
Ntasg7
g27
sba(idoubletalk.transac
Transaction
(dp1393
g2
I958348800
sg3
(lp1394
(S'MyCo.Capital.PL.Expenses.Utilities'
I88
Nta(g5
I-88
Ntasg7
g27
sba(idoubletalk.transac
Transaction
(dp1395
g2
I958435200
sg3
(lp1396
(S'MyCo.Capital.PL.Expenses.Rent'
I12
Nta(g5
I-12
Ntasg7
g27
sba(idoubletalk.transac
Transaction
(dp1397
g2
I958521600
sg3
(lp1398
(g5
F-1762.5
Nta(g63
F1762.5
Ntasg7
g130
sba(idoubletalk.transac
Transaction
(dp1399
g2
I958521600
sg3
(lp1400
(S'MyCo.Capital.PL.Expenses.Contractors'
I1500
Nta(g19
F262.5
Nta(g63
F-1762.5
Ntasg7
S'Bill received - Contractor'
sba(idoubletalk.transac
Transaction
(dp1401
g2
I958608000
sg3
(lp1402
(S'MyCo.Capital.PL.Expenses.Utilities'
I10
Nta(g5
I-10
Ntasg7
g27
sba(idoubletalk.transac
Transaction
(dp1403
g2
I958608000
sg3
(lp1404
(S'MyCo.Capital.PL.Expenses.Utilities'
I58
Nta(g5
I-58
Ntasg7
g27
sba(idoubletalk.transac
Transaction
(dp1405
g2
I958780800
sg3
(lp1406
(g63
F1762.5
Nta(g5
F-1762.5
Ntasg7
S'Bill paid - Contractor'
sba(idoubletalk.transac
Transaction
(dp1407
g2
I958953600
sg3
(lp1408
(S'MyCo.Capital.PL.Expenses.Rent'
I53
Nta(g5
I-53
Ntasg7
g27
sba(idoubletalk.transac
Transaction
(dp1409
g2
I959040000
sg3
(lp1410
(S'MyCo.Capital.PL.Expenses.Labour'
I17
Nta(g5
I-17
Ntasg7
g27
sba(idoubletalk.transac
Transaction
(dp1411
g2
I959126400
sg3
(lp1412
(S'MyCo.Capital.PL.Expenses.Contractors'
I1500
Nta(g19
F262.5
Nta(g63
F-1762.5
Ntasg7
S'Bill received - Contractor'
sba(idoubletalk.transac
Transaction
(dp1413
g2
I959212800
sg3
(lp1414
(S'MyCo.Capital.PL.Expenses.Wages'
I3000
Nta(g5
I-3000
Ntasg7
S'Salary for Roger'
sba(idoubletalk.transac
Transaction
(dp1415
g2
I959212800
sg3
(lp1416
(S'MyCo.Capital.PL.Expenses.Wages'
I2000
Nta(g5
I-2000
Ntasg7
S'Salary for Simon'
sba(idoubletalk.transac
Transaction
(dp1417
g2
I959212800
sg3
(lp1418
(S'MyCo.Capital.PL.Expenses.Wages'
I1500
Nta(g5
I-1500
Ntasg7
S'Salary for Tim'
sba(idoubletalk.transac
Transaction
(dp1419
g2
I959212800
sg3
(lp1420
(S'MyCo.Capital.PL.Expenses.Wages'
I3000
Nta(g5
I-3000
Ntasg7
S'Salary for Andy'
sba(idoubletalk.transac
Transaction
(dp1421
g2
I959212800
sg3
(lp1422
(S'MyCo.Capital.PL.Expenses.Wages'
I3000
Nta(g5
I-3000
Ntasg7
S'Salary for Richard'
sba(idoubletalk.transac
Transaction
(dp1423
g2
I959299200
sg3
(lp1424
(S'MyCo.Capital.PL.Expenses.Travel'
I80
Nta(g5
I-80
Ntasg7
g27
sba(idoubletalk.transac
Transaction
(dp1425
g2
I959299200
sg3
(lp1426
(S'MyCo.Capital.PL.Expenses.Stationery'
I80
Nta(g5
I-80
Ntasg7
g27
sba(idoubletalk.transac
Transaction
(dp1427
g2
I959385600
sg3
(lp1428
(g63
F1762.5
Nta(g5
F-1762.5
Ntasg7
S'Bill paid - Contractor'
sba(idoubletalk.transac
Transaction
(dp1429
g2
I959558400
sg3
(lp1430
(S'MyCo.Capital.PL.Expenses.Stationery'
I66
Nta(g5
I-66
Ntasg7
g27
sba(idoubletalk.transac
Transaction
(dp1431
g2
I959558400
sg3
(lp1432
(S'MyCo.Capital.PL.Expenses.Travel'
I100
Nta(g5
I-100
Ntasg7
g27
sba(idoubletalk.transac
Transaction
(dp1433
g2
I959644800
sg3
(lp1434
(S'MyCo.Capital.PL.Expenses.Rent'
I96
Nta(g5
I-96
Ntasg7
g27
sba(idoubletalk.transac
Transaction
(dp1435
g2
I959731200
sg3
(lp1436
(S'MyCo.Capital.PL.Expenses.Contractors'
I1500
Nta(g19
F262.5
Nta(g63
F-1762.5
Ntasg7
S'Bill received - Contractor'
sba(idoubletalk.transac
Transaction
(dp1437
g2
I959731200
sg3
(lp1438
(S'MyCo.Capital.PL.Expenses.Stationery'
I39
Nta(g5
I-39
Ntasg7
g27
sba(idoubletalk.transac
Transaction
(dp1439
g2
I959731200
sg3
(lp1440
(S'MyCo.Capital.PL.Expenses.Travel'
I98
Nta(g5
I-98
Ntasg7
g27
sba(idoubletalk.transac
Transaction
(dp1441
g2
I959817600
sg3
(lp1442
(g5
F-461.44999999999999
Nta(g95
F428.25
Nta(g169
F33.200000000000003
Ntasg7
g170
sba(idoubletalk.transac
Transaction
(dp1443
g2
I959817600
sg3
(lp1444
(S'MyCo.Capital.PL.Expenses.Rent'
I1500
Nta(g11
I-1500
Ntasg7
g12
sba(idoubletalk.transac
Transaction
(dp1445
g2
I959817600
sg3
(lp1446
(g18
F511
Nta(g19
F89.424999999999997
Nta(g5
F-600.42500000000007
Ntasg7
g20
sba(idoubletalk.transac
Transaction
(dp1447
g2
I959817600
sg3
(lp1448
(g23
F1200
Nta(g19
F210
Nta(g5
F-1410
Ntasg7
g24
sba(idoubletalk.transac
Transaction
(dp1449
g2
I959990400
sg3
(lp1450
(g63
F1762.5
Nta(g5
F-1762.5
Ntasg7
S'Bill paid - Contractor'
sba(idoubletalk.transac
Transaction
(dp1451
g2
I959990400
sg3
(lp1452
(S'MyCo.Capital.PL.Income.Software'
F-21435.887999999999
Nta(g19
F-3751.2803999999996
Nta(g5
F25187.168399999999
Ntasg7
S'Cash Sale - Product Sales for month'
sba(idoubletalk.transac
Transaction
(dp1453
g2
I959990400
sg3
(lp1454
(S'MyCo.Capital.PL.Expenses.Labour'
I71
Nta(g5
I-71
Ntasg7
g27
sba(idoubletalk.transac
Transaction
(dp1455
g2
I959990400
sg3
(lp1456
(S'MyCo.Capital.PL.Expenses.Utilities'
I90
Nta(g5
I-90
Ntasg7
g27
sba(idoubletalk.transac
Transaction
(dp1457
g2
I960163200
sg3
(lp1458
(S'MyCo.Capital.PL.Expenses.Labour'
I58
Nta(g5
I-58
Ntasg7
g27
sba(idoubletalk.transac
Transaction
(dp1459
g2
I960249600
sg3
(lp1460
(S'MyCo.Capital.PL.Income.Consulting'
I-21600
Nta(g19
F-3779.9999999999995
Nta(g111
F25380
Ntasg7
S'Bill raised - Consulting to 3/6/2000'
sba(idoubletalk.transac
Transaction
(dp1461
g2
I960249600
sg3
(lp1462
(S'MyCo.Capital.PL.Expenses.Rent'
I15
Nta(g5
I-15
Ntasg7
g27
sba(idoubletalk.transac
Transaction
(dp1463
g2
I960336000
sg3
(lp1464
(S'MyCo.Capital.PL.Expenses.Contractors'
I1500
Nta(g19
F262.5
Nta(g63
F-1762.5
Ntasg7
S'Bill received - Contractor'
sba(idoubletalk.transac
Transaction
(dp1465
g2
I960336000
sg3
(lp1466
(S'MyCo.Capital.PL.Expenses.Utilities'
I59
Nta(g5
I-59
Ntasg7
g27
sba(idoubletalk.transac
Transaction
(dp1467
g2
I960422400
sg3
(lp1468
(S'MyCo.Capital.PL.Expenses.Travel'
I38
Nta(g5
I-38
Ntasg7
g27
sba(idoubletalk.transac
Transaction
(dp1469
g2
I960508800
sg3
(lp1470
(S'MyCo.Capital.PL.Expenses.Rent'
I68
Nta(g5
I-68
Ntasg7
g27
sba(idoubletalk.transac
Transaction
(dp1471
g2
I960508800
sg3
(lp1472
(S'MyCo.Capital.PL.Expenses.Travel'
I41
Nta(g5
I-41
Ntasg7
g27
sba(idoubletalk.transac
Transaction
(dp1473
g2
I960595200
sg3
(lp1474
(g63
F1762.5
Nta(g5
F-1762.5
Ntasg7
S'Bill paid - Contractor'
sba(idoubletalk.transac
Transaction
(dp1475
g2
I960595200
sg3
(lp1476
(g111
F-25380
Nta(g5
F25380
Ntasg7
S'Payment received - Consulting to 3/5/2000'
sba(idoubletalk.transac
Transaction
(dp1477
g2
I960595200
sg3
(lp1478
(S'MyCo.Capital.PL.Expenses.Travel'
I5
Nta(g5
I-5
Ntasg7
g27
sba(idoubletalk.transac
Transaction
(dp1479
g2
I960595200
sg3
(lp1480
(S'MyCo.Capital.PL.Expenses.Labour'
I50
Nta(g5
I-50
Ntasg7
g27
sba(idoubletalk.transac
Transaction
(dp1481
g2
I960681600
sg3
(lp1482
(S'MyCo.Capital.PL.Expenses.Rent'
I69
Nta(g5
I-69
Ntasg7
g27
sba(idoubletalk.transac
Transaction
(dp1483
g2
I960681600
sg3
(lp1484
(S'MyCo.Capital.PL.Expenses.Utilities'
I4
Nta(g5
I-4
Ntasg7
g27
sba(idoubletalk.transac
Transaction
(dp1485
g2
I960768000
sg3
(lp1486
(S'MyCo.Capital.PL.Expenses.Travel'
I29
Nta(g5
I-29
Ntasg7
g27
sba(idoubletalk.transac
Transaction
(dp1487
g2
I960854400
sg3
(lp1488
(S'MyCo.Capital.PL.Expenses.Stationery'
I22
Nta(g5
I-22
Ntasg7
g27
sba(idoubletalk.transac
Transaction
(dp1489
g2
I960940800
sg3
(lp1490
(S'MyCo.Capital.PL.Expenses.Contractors'
I1500
Nta(g19
F262.5
Nta(g63
F-1762.5
Ntasg7
S'Bill received - Contractor'
sba(idoubletalk.transac
Transaction
(dp1491
g2
I961200000
sg3
(lp1492
(g63
F1762.5
Nta(g5
F-1762.5
Ntasg7
S'Bill paid - Contractor'
sba(idoubletalk.transac
Transaction
(dp1493
g2
I961286400
sg3
(lp1494
(S'MyCo.Capital.PL.Expenses.Labour'
I65
Nta(g5
I-65
Ntasg7
g27
sba(idoubletalk.transac
Transaction
(dp1495
g2
I961545600
sg3
(lp1496
(S'MyCo.Capital.PL.Expenses.Contractors'
I1500
Nta(g19
F262.5
Nta(g63
F-1762.5
Ntasg7
S'Bill received - Contractor'
sba(idoubletalk.transac
Transaction
(dp1497
g2
I961718400
sg3
(lp1498
(S'MyCo.Capital.PL.Expenses.Utilities'
I32
Nta(g5
I-32
Ntasg7
g27
sba(idoubletalk.transac
Transaction
(dp1499
g2
I961804800
sg3
(lp1500
(g63
F1762.5
Nta(g5
F-1762.5
Ntasg7
S'Bill paid - Contractor'
sba(idoubletalk.transac
Transaction
(dp1501
g2
I961891200
sg3
(lp1502
(S'MyCo.Capital.PL.Expenses.Wages'
I3000
Nta(g5
I-3000
Ntasg7
S'Salary for Roger'
sba(idoubletalk.transac
Transaction
(dp1503
g2
I961891200
sg3
(lp1504
(S'MyCo.Capital.PL.Expenses.Wages'
I2000
Nta(g5
I-2000
Ntasg7
S'Salary for Simon'
sba(idoubletalk.transac
Transaction
(dp1505
g2
I961891200
sg3
(lp1506
(S'MyCo.Capital.PL.Expenses.Wages'
I1500
Nta(g5
I-1500
Ntasg7
S'Salary for Tim'
sba(idoubletalk.transac
Transaction
(dp1507
g2
I961891200
sg3
(lp1508
(S'MyCo.Capital.PL.Expenses.Wages'
I3000
Nta(g5
I-3000
Ntasg7
S'Salary for Andy'
sba(idoubletalk.transac
Transaction
(dp1509
g2
I961891200
sg3
(lp1510
(S'MyCo.Capital.PL.Expenses.Wages'
I3000
Nta(g5
I-3000
Ntasg7
S'Salary for Richard'
sba(idoubletalk.transac
Transaction
(dp1511
g2
I962064000
sg3
(lp1512
(S'MyCo.Capital.PL.Expenses.Utilities'
I60
Nta(g5
I-60
Ntasg7
g27
sba(idoubletalk.transac
Transaction
(dp1513
g2
I962150400
sg3
(lp1514
(S'MyCo.Capital.PL.Expenses.Contractors'
I1500
Nta(g19
F262.5
Nta(g63
F-1762.5
Ntasg7
S'Bill received - Contractor'
sba(idoubletalk.transac
Transaction
(dp1515
g2
I962150400
sg3
(lp1516
(S'MyCo.Capital.PL.Expenses.Travel'
I72
Nta(g5
I-72
Ntasg7
g27
sba(idoubletalk.transac
Transaction
(dp1517
g2
I962150400
sg3
(lp1518
(S'MyCo.Capital.PL.Expenses.Stationery'
I47
Nta(g5
I-47
Ntasg7
g27
sba(idoubletalk.transac
Transaction
(dp1519
g2
I962150400
sg3
(lp1520
(S'MyCo.Capital.PL.Expenses.Stationery'
I4
Nta(g5
I-4
Ntasg7
g27
sba(idoubletalk.transac
Transaction
(dp1521
g2
I962236800
sg3
(lp1522
(S'MyCo.Capital.PL.Expenses.Rent'
I97
Nta(g5
I-97
Ntasg7
g27
sba(idoubletalk.transac
Transaction
(dp1523
g2
I962236800
sg3
(lp1524
(S'MyCo.Capital.PL.Expenses.Stationery'
I64
Nta(g5
I-64
Ntasg7
g27
sba(idoubletalk.transac
Transaction
(dp1525
g2
I962323200
sg3
(lp1526
(S'MyCo.Capital.PL.Expenses.Stationery'
I52
Nta(g5
I-52
Ntasg7
g27
sba(idoubletalk.transac
Transaction
(dp1527
g2
I962323200
sg3
(lp1528
(S'MyCo.Capital.PL.Expenses.Rent'
I3
Nta(g5
I-3
Ntasg7
g27
sba(idoubletalk.transac
Transaction
(dp1529
g2
I962409600
sg3
(lp1530
(g5
F-461.44999999999999
Nta(g95
F431.81
Nta(g169
F29.640000000000001
Ntasg7
g170
sba(idoubletalk.transac
Transaction
(dp1531
g2
I962409600
sg3
(lp1532
(S'MyCo.Capital.PL.Expenses.Rent'
I1500
Nta(g11
I-1500
Ntasg7
g12
sba(idoubletalk.transac
Transaction
(dp1533
g2
I962409600
sg3
(lp1534
(g11
I4500
Nta(g5
I-4500
Ntasg7
g15
sba(idoubletalk.transac
Transaction
(dp1535
g2
I962409600
sg3
(lp1536
(g18
F353
Nta(g19
F61.774999999999999
Nta(g5
F-414.77500000000003
Ntasg7
g20
sba(idoubletalk.transac
Transaction
(dp1537
g2
I962409600
sg3
(lp1538
(g23
F1200
Nta(g19
F210
Nta(g5
F-1410
Ntasg7
g24
sba(idoubletalk.transac
Transaction
(dp1539
g2
I962409600
sg3
(lp1540
(g63
F1762.5
Nta(g5
F-1762.5
Ntasg7
S'Bill paid - Contractor'
sba(idoubletalk.transac
Transaction
(dp1541
g2
I962582400
sg3
(lp1542
(S'MyCo.Capital.PL.Income.Software'
F-23579.48
Nta(g19
F-4126.4089999999997
Nta(g5
F27705.888999999999
Ntasg7
S'Cash Sale - Product Sales for month'
sba(idoubletalk.transac
Transaction
(dp1543
g2
I962582400
sg3
(lp1544
(S'MyCo.Capital.PL.Expenses.Stationery'
I58
Nta(g5
I-58
Ntasg7
g27
sba(idoubletalk.transac
Transaction
(dp1545
g2
I962668800
sg3
(lp1546
(S'MyCo.Capital.PL.Expenses.Stationery'
I66
Nta(g5
I-66
Ntasg7
g27
sba(idoubletalk.transac
Transaction
(dp1547
g2
I962755200
sg3
(lp1548
(S'MyCo.Capital.PL.Expenses.Contractors'
I1500
Nta(g19
F262.5
Nta(g63
F-1762.5
Ntasg7
S'Bill received - Contractor'
sba(idoubletalk.transac
Transaction
(dp1549
g2
I962841600
sg3
(lp1550
(S'MyCo.Capital.PL.Income.Consulting'
I-21600
Nta(g19
F-3779.9999999999995
Nta(g111
F25380
Ntasg7
S'Bill raised - Consulting to 3/7/2000'
sba(idoubletalk.transac
Transaction
(dp1551
g2
I962841600
sg3
(lp1552
(S'MyCo.Capital.PL.Expenses.Labour'
I47
Nta(g5
I-47
Ntasg7
g27
sba(idoubletalk.transac
Transaction
(dp1553
g2
I962841600
sg3
(lp1554
(S'MyCo.Capital.PL.Expenses.Utilities'
I88
Nta(g5
I-88
Ntasg7
g27
sba(idoubletalk.transac
Transaction
(dp1555
g2
I962841600
sg3
(lp1556
(S'MyCo.Capital.PL.Expenses.Labour'
I43
Nta(g5
I-43
Ntasg7
g27
sba(idoubletalk.transac
Transaction
(dp1557
g2
I963014400
sg3
(lp1558
(g63
F1762.5
Nta(g5
F-1762.5
Ntasg7
S'Bill paid - Contractor'
sba(idoubletalk.transac
Transaction
(dp1559
g2
I963100800
sg3
(lp1560
(S'MyCo.Capital.PL.Expenses.Utilities'
I45
Nta(g5
I-45
Ntasg7
g27
sba(idoubletalk.transac
Transaction
(dp1561
g2
I963187200
sg3
(lp1562
(S'MyCo.Capital.PL.Expenses.Rent'
I68
Nta(g5
I-68
Ntasg7
g27
sba(idoubletalk.transac
Transaction
(dp1563
g2
I963273600
sg3
(lp1564
(g111
F-25380
Nta(g5
F25380
Ntasg7
S'Payment received - Consulting to 3/6/2000'
sba(idoubletalk.transac
Transaction
(dp1565
g2
I963273600
sg3
(lp1566
(S'MyCo.Capital.PL.Expenses.Stationery'
I38
Nta(g5
I-38
Ntasg7
g27
sba(idoubletalk.transac
Transaction
(dp1567
g2
I963360000
sg3
(lp1568
(S'MyCo.Capital.PL.Expenses.Contractors'
I1500
Nta(g19
F262.5
Nta(g63
F-1762.5
Ntasg7
S'Bill received - Contractor'
sba(idoubletalk.transac
Transaction
(dp1569
g2
I963360000
sg3
(lp1570
(S'MyCo.Capital.PL.Expenses.Utilities'
I9
Nta(g5
I-9
Ntasg7
g27
sba(idoubletalk.transac
Transaction
(dp1571
g2
I963532800
sg3
(lp1572
(S'MyCo.Capital.PL.Expenses.Rent'
I88
Nta(g5
I-88
Ntasg7
g27
sba(idoubletalk.transac
Transaction
(dp1573
g2
I963619200
sg3
(lp1574
(g63
F1762.5
Nta(g5
F-1762.5
Ntasg7
S'Bill paid - Contractor'
sba(idoubletalk.transac
Transaction
(dp1575
g2
I963619200
sg3
(lp1576
(S'MyCo.Capital.PL.Expenses.Rent'
I76
Nta(g5
I-76
Ntasg7
g27
sba(idoubletalk.transac
Transaction
(dp1577
g2
I963792000
sg3
(lp1578
(S'MyCo.Capital.PL.Expenses.Labour'
I33
Nta(g5
I-33
Ntasg7
g27
sba(idoubletalk.transac
Transaction
(dp1579
g2
I963792000
sg3
(lp1580
(S'MyCo.Capital.PL.Expenses.Rent'
I44
Nta(g5
I-44
Ntasg7
g27
sba(idoubletalk.transac
Transaction
(dp1581
g2
I963964800
sg3
(lp1582
(S'MyCo.Capital.PL.Expenses.Contractors'
I1500
Nta(g19
F262.5
Nta(g63
F-1762.5
Ntasg7
S'Bill received - Contractor'
sba(idoubletalk.transac
Transaction
(dp1583
g2
I963964800
sg3
(lp1584
(S'MyCo.Capital.PL.Expenses.Stationery'
I9
Nta(g5
I-9
Ntasg7
g27
sba(idoubletalk.transac
Transaction
(dp1585
g2
I964051200
sg3
(lp1586
(S'MyCo.Capital.PL.Expenses.Rent'
I91
Nta(g5
I-91
Ntasg7
g27
sba(idoubletalk.transac
Transaction
(dp1587
g2
I964051200
sg3
(lp1588
(S'MyCo.Capital.PL.Expenses.Stationery'
I38
Nta(g5
I-38
Ntasg7
g27
sba(idoubletalk.transac
Transaction
(dp1589
g2
I964224000
sg3
(lp1590
(g63
F1762.5
Nta(g5
F-1762.5
Ntasg7
S'Bill paid - Contractor'
sba(idoubletalk.transac
Transaction
(dp1591
g2
I964396800
sg3
(lp1592
(S'MyCo.Capital.PL.Expenses.Labour'
I30
Nta(g5
I-30
Ntasg7
g27
sba(idoubletalk.transac
Transaction
(dp1593
g2
I964483200
sg3
(lp1594
(S'MyCo.Capital.PL.Expenses.Wages'
I3000
Nta(g5
I-3000
Ntasg7
S'Salary for Roger'
sba(idoubletalk.transac
Transaction
(dp1595
g2
I964483200
sg3
(lp1596
(S'MyCo.Capital.PL.Expenses.Wages'
I2000
Nta(g5
I-2000
Ntasg7
S'Salary for Simon'
sba(idoubletalk.transac
Transaction
(dp1597
g2
I964483200
sg3
(lp1598
(S'MyCo.Capital.PL.Expenses.Wages'
I1500
Nta(g5
I-1500
Ntasg7
S'Salary for Tim'
sba(idoubletalk.transac
Transaction
(dp1599
g2
I964483200
sg3
(lp1600
(S'MyCo.Capital.PL.Expenses.Wages'
I3000
Nta(g5
I-3000
Ntasg7
S'Salary for Andy'
sba(idoubletalk.transac
Transaction
(dp1601
g2
I964483200
sg3
(lp1602
(S'MyCo.Capital.PL.Expenses.Wages'
I3000
Nta(g5
I-3000
Ntasg7
S'Salary for Richard'
sba(idoubletalk.transac
Transaction
(dp1603
g2
I964569600
sg3
(lp1604
(S'MyCo.Capital.PL.Expenses.Contractors'
I1500
Nta(g19
F262.5
Nta(g63
F-1762.5
Ntasg7
S'Bill received - Contractor'
sba(idoubletalk.transac
Transaction
(dp1605
g2
I964656000
sg3
(lp1606
(S'MyCo.Capital.PL.Expenses.Utilities'
I23
Nta(g5
I-23
Ntasg7
g27
sba(idoubletalk.transac
Transaction
(dp1607
g2
I964828800
sg3
(lp1608
(g63
F1762.5
Nta(g5
F-1762.5
Ntasg7
S'Bill paid - Contractor'
sba(idoubletalk.transac
Transaction
(dp1609
g2
I964828800
sg3
(lp1610
(S'MyCo.Capital.PL.Expenses.Travel'
I99
Nta(g5
I-99
Ntasg7
g27
sba(idoubletalk.transac
Transaction
(dp1611
g2
I965088000
sg3
(lp1612
(g5
F-461.44999999999999
Nta(g95
F435.40999999999997
Nta(g169
F26.039999999999999
Ntasg7
g170
sba(idoubletalk.transac
Transaction
(dp1613
g2
I965088000
sg3
(lp1614
(S'MyCo.Capital.PL.Expenses.Rent'
I1500
Nta(g11
I-1500
Ntasg7
g12
sba(idoubletalk.transac
Transaction
(dp1615
g2
I965088000
sg3
(lp1616
(g18
F615
Nta(g19
F107.625
Nta(g5
F-722.625
Ntasg7
g20
sba(idoubletalk.transac
Transaction
(dp1617
g2
I965088000
sg3
(lp1618
(g23
F1200
Nta(g19
F210
Nta(g5
F-1410
Ntasg7
g24
sba(idoubletalk.transac
Transaction
(dp1619
g2
I965088000
sg3
(lp1620
(S'MyCo.Capital.PL.Expenses.Travel'
I83
Nta(g5
I-83
Ntasg7
g27
sba(idoubletalk.transac
Transaction
(dp1621
g2
I965174400
sg3
(lp1622
(S'MyCo.Capital.PL.Expenses.Contractors'
I1500
Nta(g19
F262.5
Nta(g63
F-1762.5
Ntasg7
S'Bill received - Contractor'
sba(idoubletalk.transac
Transaction
(dp1623
g2
I965260800
sg3
(lp1624
(S'MyCo.Capital.PL.Income.Software'
F-25937.419999999998
Nta(g19
F-4539.048499999999
Nta(g5
F30476.468499999995
Ntasg7
S'Cash Sale - Product Sales for month'
sba(idoubletalk.transac
Transaction
(dp1625
g2
I965347200
sg3
(lp1626
(S'MyCo.Capital.PL.Expenses.Labour'
I85
Nta(g5
I-85
Ntasg7
g27
sba(idoubletalk.transac
Transaction
(dp1627
g2
I965433600
sg3
(lp1628
(g63
F1762.5
Nta(g5
F-1762.5
Ntasg7
S'Bill paid - Contractor'
sba(idoubletalk.transac
Transaction
(dp1629
g2
I965433600
sg3
(lp1630
(S'MyCo.Capital.PL.Expenses.Labour'
I70
Nta(g5
I-70
Ntasg7
g27
sba(idoubletalk.transac
Transaction
(dp1631
g2
I965520000
sg3
(lp1632
(S'MyCo.Capital.PL.Income.Consulting'
I-21600
Nta(g19
F-3779.9999999999995
Nta(g111
F25380
Ntasg7
S'Bill raised - Consulting to 3/8/2000'
sba(idoubletalk.transac
Transaction
(dp1633
g2
I965520000
sg3
(lp1634
(S'MyCo.Capital.PL.Expenses.Stationery'
I82
Nta(g5
I-82
Ntasg7
g27
sba(idoubletalk.transac
Transaction
(dp1635
g2
I965692800
sg3
(lp1636
(S'MyCo.Capital.PL.Expenses.Utilities'
I72
Nta(g5
I-72
Ntasg7
g27
sba(idoubletalk.transac
Transaction
(dp1637
g2
I965692800
sg3
(lp1638
(S'MyCo.Capital.PL.Expenses.Rent'
I70
Nta(g5
I-70
Ntasg7
g27
sba(idoubletalk.transac
Transaction
(dp1639
g2
I965779200
sg3
(lp1640
(S'MyCo.Capital.PL.Expenses.Contractors'
I1500
Nta(g19
F262.5
Nta(g63
F-1762.5
Ntasg7
S'Bill received - Contractor'
sba(idoubletalk.transac
Transaction
(dp1641
g2
I965865600
sg3
(lp1642
(g111
F-25380
Nta(g5
F25380
Ntasg7
S'Payment received - Consulting to 3/7/2000'
sba(idoubletalk.transac
Transaction
(dp1643
g2
I966038400
sg3
(lp1644
(g63
F1762.5
Nta(g5
F-1762.5
Ntasg7
S'Bill paid - Contractor'
sba(idoubletalk.transac
Transaction
(dp1645
g2
I966124800
sg3
(lp1646
(S'MyCo.Capital.PL.Expenses.Labour'
I48
Nta(g5
I-48
Ntasg7
g27
sba(idoubletalk.transac
Transaction
(dp1647
g2
I966211200
sg3
(lp1648
(S'MyCo.Capital.PL.Expenses.Labour'
I17
Nta(g5
I-17
Ntasg7
g27
sba(idoubletalk.transac
Transaction
(dp1649
g2
I966211200
sg3
(lp1650
(S'MyCo.Capital.PL.Expenses.Utilities'
I87
Nta(g5
I-87
Ntasg7
g27
sba(idoubletalk.transac
Transaction
(dp1651
g2
I966211200
sg3
(lp1652
(S'MyCo.Capital.PL.Expenses.Stationery'
I87
Nta(g5
I-87
Ntasg7
g27
sba(idoubletalk.transac
Transaction
(dp1653
g2
I966297600
sg3
(lp1654
(S'MyCo.Capital.PL.Expenses.Stationery'
I84
Nta(g5
I-84
Ntasg7
g27
sba(idoubletalk.transac
Transaction
(dp1655
g2
I966384000
sg3
(lp1656
(S'MyCo.Capital.PL.Expenses.Contractors'
I1500
Nta(g19
F262.5
Nta(g63
F-1762.5
Ntasg7
S'Bill received - Contractor'
sba(idoubletalk.transac
Transaction
(dp1657
g2
I966470400
sg3
(lp1658
(S'MyCo.Capital.PL.Expenses.Utilities'
I61
Nta(g5
I-61
Ntasg7
g27
sba(idoubletalk.transac
Transaction
(dp1659
g2
I966643200
sg3
(lp1660
(g63
F1762.5
Nta(g5
F-1762.5
Ntasg7
S'Bill paid - Contractor'
sba(idoubletalk.transac
Transaction
(dp1661
g2
I966988800
sg3
(lp1662
(S'MyCo.Capital.PL.Expenses.Contractors'
I1500
Nta(g19
F262.5
Nta(g63
F-1762.5
Ntasg7
S'Bill received - Contractor'
sba(idoubletalk.transac
Transaction
(dp1663
g2
I967075200
sg3
(lp1664
(S'MyCo.Capital.PL.Expenses.Rent'
I42
Nta(g5
I-42
Ntasg7
g27
sba(idoubletalk.transac
Transaction
(dp1665
g2
I967075200
sg3
(lp1666
(S'MyCo.Capital.PL.Expenses.Stationery'
I82
Nta(g5
I-82
Ntasg7
g27
sba(idoubletalk.transac
Transaction
(dp1667
g2
I967161600
sg3
(lp1668
(S'MyCo.Capital.PL.Expenses.Wages'
I3000
Nta(g5
I-3000
Ntasg7
S'Salary for Roger'
sba(idoubletalk.transac
Transaction
(dp1669
g2
I967161600
sg3
(lp1670
(S'MyCo.Capital.PL.Expenses.Wages'
I2000
Nta(g5
I-2000
Ntasg7
S'Salary for Simon'
sba(idoubletalk.transac
Transaction
(dp1671
g2
I967161600
sg3
(lp1672
(S'MyCo.Capital.PL.Expenses.Wages'
I1500
Nta(g5
I-1500
Ntasg7
S'Salary for Tim'
sba(idoubletalk.transac
Transaction
(dp1673
g2
I967161600
sg3
(lp1674
(S'MyCo.Capital.PL.Expenses.Wages'
I3000
Nta(g5
I-3000
Ntasg7
S'Salary for Andy'
sba(idoubletalk.transac
Transaction
(dp1675
g2
I967161600
sg3
(lp1676
(S'MyCo.Capital.PL.Expenses.Wages'
I3000
Nta(g5
I-3000
Ntasg7
S'Salary for Richard'
sba(idoubletalk.transac
Transaction
(dp1677
g2
I967161600
sg3
(lp1678
(S'MyCo.Capital.PL.Expenses.Travel'
I23
Nta(g5
I-23
Ntasg7
g27
sba(idoubletalk.transac
Transaction
(dp1679
g2
I967248000
sg3
(lp1680
(g63
F1762.5
Nta(g5
F-1762.5
Ntasg7
S'Bill paid - Contractor'
sba(idoubletalk.transac
Transaction
(dp1681
g2
I967248000
sg3
(lp1682
(S'MyCo.Capital.PL.Expenses.Rent'
I19
Nta(g5
I-19
Ntasg7
g27
sba(idoubletalk.transac
Transaction
(dp1683
g2
I967420800
sg3
(lp1684
(S'MyCo.Capital.PL.Expenses.Rent'
I99
Nta(g5
I-99
Ntasg7
g27
sba(idoubletalk.transac
Transaction
(dp1685
g2
I967420800
sg3
(lp1686
(S'MyCo.Capital.PL.Expenses.Rent'
I28
Nta(g5
I-28
Ntasg7
g27
sba(idoubletalk.transac
Transaction
(dp1687
g2
I967593600
sg3
(lp1688
(S'MyCo.Capital.PL.Expenses.Contractors'
I1500
Nta(g19
F262.5
Nta(g63
F-1762.5
Ntasg7
S'Bill received - Contractor'
sba(idoubletalk.transac
Transaction
(dp1689
g2
I967593600
sg3
(lp1690
(S'MyCo.Capital.PL.Expenses.Rent'
I64
Nta(g5
I-64
Ntasg7
g27
sba(idoubletalk.transac
Transaction
(dp1691
g2
I967680000
sg3
(lp1692
(S'MyCo.Capital.PL.Expenses.Rent'
I65
Nta(g5
I-65
Ntasg7
g27
sba(idoubletalk.transac
Transaction
(dp1693
g2
I967766400
sg3
(lp1694
(g5
F-461.44999999999999
Nta(g95
F439.03999999999996
Nta(g169
F22.41
Ntasg7
g170
sba(idoubletalk.transac
Transaction
(dp1695
g2
I967766400
sg3
(lp1696
(S'MyCo.Capital.PL.Expenses.Rent'
I1500
Nta(g11
I-1500
Ntasg7
g12
sba(idoubletalk.transac
Transaction
(dp1697
g2
I967766400
sg3
(lp1698
(g18
F589
Nta(g19
F103.07499999999999
Nta(g5
F-692.07500000000005
Ntasg7
g20
sba(idoubletalk.transac
Transaction
(dp1699
g2
I967766400
sg3
(lp1700
(g23
F1200
Nta(g19
F210
Nta(g5
F-1410
Ntasg7
g24
sba(idoubletalk.transac
Transaction
(dp1701
g2
I967766400
sg3
(lp1702
(S'MyCo.Capital.PL.Expenses.Stationery'
I7
Nta(g5
I-7
Ntasg7
g27
sba(idoubletalk.transac
Transaction
(dp1703
g2
I967766400
sg3
(lp1704
(S'MyCo.Capital.PL.Expenses.Labour'
I2
Nta(g5
I-2
Ntasg7
g27
sba(idoubletalk.transac
Transaction
(dp1705
g2
I967766400
sg3
(lp1706
(S'MyCo.Capital.PL.Expenses.Stationery'
I70
Nta(g5
I-70
Ntasg7
g27
sba(idoubletalk.transac
Transaction
(dp1707
g2
I967852800
sg3
(lp1708
(g63
F1762.5
Nta(g5
F-1762.5
Ntasg7
S'Bill paid - Contractor'
sba(idoubletalk.transac
Transaction
(dp1709
g2
I967939200
sg3
(lp1710
(S'MyCo.Capital.PL.Income.Software'
F-42796.75
Nta(g19
F-7489.4312499999996
Nta(g5
F50286.181250000001
Ntasg7
S'Cash Sale - Product Sales for month'
sba(idoubletalk.transac
Transaction
(dp1711
g2
I968198400
sg3
(lp1712
(S'MyCo.Capital.PL.Expenses.Contractors'
I1500
Nta(g19
F262.5
Nta(g63
F-1762.5
Ntasg7
S'Bill received - Contractor'
sba(idoubletalk.transac
Transaction
(dp1713
g2
I968198400
sg3
(lp1714
(S'MyCo.Capital.PL.Income.Consulting'
I-21600
Nta(g19
F-3779.9999999999995
Nta(g111
F25380
Ntasg7
S'Bill raised - Consulting to 3/9/2000'
sba(idoubletalk.transac
Transaction
(dp1715
g2
I968284800
sg3
(lp1716
(S'MyCo.Capital.PL.Expenses.Travel'
I100
Nta(g5
I-100
Ntasg7
g27
sba(idoubletalk.transac
Transaction
(dp1717
g2
I968371200
sg3
(lp1718
(S'MyCo.Capital.PL.Expenses.Labour'
I62
Nta(g5
I-62
Ntasg7
g27
sba(idoubletalk.transac
Transaction
(dp1719
g2
I968457600
sg3
(lp1720
(g63
F1762.5
Nta(g5
F-1762.5
Ntasg7
S'Bill paid - Contractor'
sba(idoubletalk.transac
Transaction
(dp1721
g2
I968457600
sg3
(lp1722
(S'MyCo.Capital.PL.Expenses.Stationery'
I11
Nta(g5
I-11
Ntasg7
g27
sba(idoubletalk.transac
Transaction
(dp1723
g2
I968544000
sg3
(lp1724
(g111
F-25380
Nta(g5
F25380
Ntasg7
S'Payment received - Consulting to 3/8/2000'
sba(idoubletalk.transac
Transaction
(dp1725
g2
I968544000
sg3
(lp1726
(S'MyCo.Capital.PL.Expenses.Rent'
I57
Nta(g5
I-57
Ntasg7
g27
sba(idoubletalk.transac
Transaction
(dp1727
g2
I968544000
sg3
(lp1728
(S'MyCo.Capital.PL.Expenses.Rent'
I57
Nta(g5
I-57
Ntasg7
g27
sba(idoubletalk.transac
Transaction
(dp1729
g2
I968630400
sg3
(lp1730
(S'MyCo.Capital.PL.Expenses.Labour'
I67
Nta(g5
I-67
Ntasg7
g27
sba(idoubletalk.transac
Transaction
(dp1731
g2
I968803200
sg3
(lp1732
(S'MyCo.Capital.PL.Expenses.Contractors'
I1500
Nta(g19
F262.5
Nta(g63
F-1762.5
Ntasg7
S'Bill received - Contractor'
sba(idoubletalk.transac
Transaction
(dp1733
g2
I968803200
sg3
(lp1734
(S'MyCo.Capital.PL.Expenses.Labour'
I64
Nta(g5
I-64
Ntasg7
g27
sba(idoubletalk.transac
Transaction
(dp1735
g2
I968803200
sg3
(lp1736
(S'MyCo.Capital.PL.Expenses.Stationery'
I73
Nta(g5
I-73
Ntasg7
g27
sba(idoubletalk.transac
Transaction
(dp1737
g2
I969062400
sg3
(lp1738
(g63
F1762.5
Nta(g5
F-1762.5
Ntasg7
S'Bill paid - Contractor'
sba(idoubletalk.transac
Transaction
(dp1739
g2
I969148800
sg3
(lp1740
(S'MyCo.Capital.PL.Expenses.Rent'
I71
Nta(g5
I-71
Ntasg7
g27
sba(idoubletalk.transac
Transaction
(dp1741
g2
I969408000
sg3
(lp1742
(S'MyCo.Capital.PL.Expenses.Contractors'
I1500
Nta(g19
F262.5
Nta(g63
F-1762.5
Ntasg7
S'Bill received - Contractor'
sba(idoubletalk.transac
Transaction
(dp1743
g2
I969494400
sg3
(lp1744
(S'MyCo.Capital.PL.Expenses.Stationery'
I47
Nta(g5
I-47
Ntasg7
g27
sba(idoubletalk.transac
Transaction
(dp1745
g2
I969667200
sg3
(lp1746
(g63
F1762.5
Nta(g5
F-1762.5
Ntasg7
S'Bill paid - Contractor'
sba(idoubletalk.transac
Transaction
(dp1747
g2
I969667200
sg3
(lp1748
(S'MyCo.Capital.PL.Expenses.Rent'
I37
Nta(g5
I-37
Ntasg7
g27
sba(idoubletalk.transac
Transaction
(dp1749
g2
I969753600
sg3
(lp1750
(S'MyCo.Capital.PL.Expenses.Labour'
I69
Nta(g5
I-69
Ntasg7
g27
sba(idoubletalk.transac
Transaction
(dp1751
g2
I969753600
sg3
(lp1752
(S'MyCo.Capital.PL.Expenses.Rent'
I89
Nta(g5
I-89
Ntasg7
g27
sba(idoubletalk.transac
Transaction
(dp1753
g2
I969840000
sg3
(lp1754
(S'MyCo.Capital.PL.Expenses.Wages'
I3000
Nta(g5
I-3000
Ntasg7
S'Salary for Roger'
sba(idoubletalk.transac
Transaction
(dp1755
g2
I969840000
sg3
(lp1756
(S'MyCo.Capital.PL.Expenses.Wages'
I2000
Nta(g5
I-2000
Ntasg7
S'Salary for Simon'
sba(idoubletalk.transac
Transaction
(dp1757
g2
I969840000
sg3
(lp1758
(S'MyCo.Capital.PL.Expenses.Wages'
I1500
Nta(g5
I-1500
Ntasg7
S'Salary for Tim'
sba(idoubletalk.transac
Transaction
(dp1759
g2
I969840000
sg3
(lp1760
(S'MyCo.Capital.PL.Expenses.Wages'
I3000
Nta(g5
I-3000
Ntasg7
S'Salary for Andy'
sba(idoubletalk.transac
Transaction
(dp1761
g2
I969840000
sg3
(lp1762
(S'MyCo.Capital.PL.Expenses.Wages'
I3000
Nta(g5
I-3000
Ntasg7
S'Salary for Richard'
sba(idoubletalk.transac
Transaction
(dp1763
g2
I969840000
sg3
(lp1764
(S'MyCo.Capital.PL.Expenses.Rent'
I100
Nta(g5
I-100
Ntasg7
g27
sba(idoubletalk.transac
Transaction
(dp1765
g2
I969926400
sg3
(lp1766
(S'MyCo.Capital.PL.Expenses.Rent'
I30
Nta(g5
I-30
Ntasg7
g27
sba(idoubletalk.transac
Transaction
(dp1767
g2
I969926400
sg3
(lp1768
(S'MyCo.Capital.PL.Expenses.Rent'
I39
Nta(g5
I-39
Ntasg7
g27
sba(idoubletalk.transac
Transaction
(dp1769
g2
I970012800
sg3
(lp1770
(S'MyCo.Capital.PL.Expenses.Contractors'
I1500
Nta(g19
F262.5
Nta(g63
F-1762.5
Ntasg7
S'Bill received - Contractor'
sba(idoubletalk.transac
Transaction
(dp1771
g2
I970012800
sg3
(lp1772
(S'MyCo.Capital.PL.Expenses.Utilities'
I29
Nta(g5
I-29
Ntasg7
g27
sba(idoubletalk.transac
Transaction
(dp1773
g2
I970012800
sg3
(lp1774
(S'MyCo.Capital.PL.Expenses.Stationery'
I54
Nta(g5
I-54
Ntasg7
g27
sba(idoubletalk.transac
Transaction
(dp1775
g2
I970099200
sg3
(lp1776
(S'MyCo.Capital.PL.Expenses.Stationery'
I14
Nta(g5
I-14
Ntasg7
g27
sba(idoubletalk.transac
Transaction
(dp1777
g2
I970272000
sg3
(lp1778
(g63
F1762.5
Nta(g5
F-1762.5
Ntasg7
S'Bill paid - Contractor'
sba(idoubletalk.transac
Transaction
(dp1779
g2
I970358400
sg3
(lp1780
(g5
F-461.44999999999999
Nta(g95
F442.69999999999999
Nta(g169
F18.75
Ntasg7
g170
sba(idoubletalk.transac
Transaction
(dp1781
g2
I970358400
sg3
(lp1782
(S'MyCo.Capital.PL.Expenses.Rent'
I1500
Nta(g11
I-1500
Ntasg7
g12
sba(idoubletalk.transac
Transaction
(dp1783
g2
I970358400
sg3
(lp1784
(g11
I4500
Nta(g5
I-4500
Ntasg7
g15
sba(idoubletalk.transac
Transaction
(dp1785
g2
I970358400
sg3
(lp1786
(g18
F479
Nta(g19
F83.824999999999989
Nta(g5
F-562.82500000000005
Ntasg7
g20
sba(idoubletalk.transac
Transaction
(dp1787
g2
I970358400
sg3
(lp1788
(g23
F1200
Nta(g19
F210
Nta(g5
F-1410
Ntasg7
g24
sba(idoubletalk.transac
Transaction
(dp1789
g2
I970444800
sg3
(lp1790
(S'MyCo.Capital.PL.Expenses.Utilities'
I97
Nta(g5
I-97
Ntasg7
g27
sba(idoubletalk.transac
Transaction
(dp1791
g2
I970531200
sg3
(lp1792
(S'MyCo.Capital.PL.Income.Software'
F-47076.43
Nta(g19
F-8238.3752499999991
Nta(g5
F55314.805249999998
Ntasg7
S'Cash Sale - Product Sales for month'
sba(idoubletalk.transac
Transaction
(dp1793
g2
I970531200
sg3
(lp1794
(S'MyCo.Capital.PL.Expenses.Stationery'
I91
Nta(g5
I-91
Ntasg7
g27
sba(idoubletalk.transac
Transaction
(dp1795
g2
I970617600
sg3
(lp1796
(S'MyCo.Capital.PL.Expenses.Contractors'
I1500
Nta(g19
F262.5
Nta(g63
F-1762.5
Ntasg7
S'Bill received - Contractor'
sba(idoubletalk.transac
Transaction
(dp1797
g2
I970790400
sg3
(lp1798
(S'MyCo.Capital.PL.Income.Consulting'
I-21600
Nta(g19
F-3779.9999999999995
Nta(g111
F25380
Ntasg7
S'Bill raised - Consulting to 3/10/2000'
sba(idoubletalk.transac
Transaction
(dp1799
g2
I970876800
sg3
(lp1800
(g63
F1762.5
Nta(g5
F-1762.5
Ntasg7
S'Bill paid - Contractor'
sba(idoubletalk.transac
Transaction
(dp1801
g2
I970963200
sg3
(lp1802
(S'MyCo.Capital.PL.Expenses.Travel'
I24
Nta(g5
I-24
Ntasg7
g27
sba(idoubletalk.transac
Transaction
(dp1803
g2
I971222400
sg3
(lp1804
(S'MyCo.Capital.PL.Expenses.Contractors'
I1500
Nta(g19
F262.5
Nta(g63
F-1762.5
Ntasg7
S'Bill received - Contractor'
sba(idoubletalk.transac
Transaction
(dp1805
g2
I971222400
sg3
(lp1806
(g111
F-25380
Nta(g5
F25380
Ntasg7
S'Payment received - Consulting to 3/9/2000'
sba(idoubletalk.transac
Transaction
(dp1807
g2
I971308800
sg3
(lp1808
(S'MyCo.Capital.PL.Expenses.Travel'
I2
Nta(g5
I-2
Ntasg7
g27
sba(idoubletalk.transac
Transaction
(dp1809
g2
I971395200
sg3
(lp1810
(S'MyCo.Capital.PL.Expenses.Utilities'
I70
Nta(g5
I-70
Ntasg7
g27
sba(idoubletalk.transac
Transaction
(dp1811
g2
I971481600
sg3
(lp1812
(g63
F1762.5
Nta(g5
F-1762.5
Ntasg7
S'Bill paid - Contractor'
sba(idoubletalk.transac
Transaction
(dp1813
g2
I971481600
sg3
(lp1814
(S'MyCo.Capital.PL.Expenses.Travel'
I27
Nta(g5
I-27
Ntasg7
g27
sba(idoubletalk.transac
Transaction
(dp1815
g2
I971654400
sg3
(lp1816
(S'MyCo.Capital.PL.Expenses.Rent'
I34
Nta(g5
I-34
Ntasg7
g27
sba(idoubletalk.transac
Transaction
(dp1817
g2
I971827200
sg3
(lp1818
(S'MyCo.Capital.PL.Expenses.Contractors'
I1500
Nta(g19
F262.5
Nta(g63
F-1762.5
Ntasg7
S'Bill received - Contractor'
sba(idoubletalk.transac
Transaction
(dp1819
g2
I971827200
sg3
(lp1820
(S'MyCo.Capital.PL.Expenses.Travel'
I15
Nta(g5
I-15
Ntasg7
g27
sba(idoubletalk.transac
Transaction
(dp1821
g2
I971827200
sg3
(lp1822
(S'MyCo.Capital.PL.Expenses.Labour'
I13
Nta(g5
I-13
Ntasg7
g27
sba(idoubletalk.transac
Transaction
(dp1823
g2
I971913600
sg3
(lp1824
(S'MyCo.Capital.PL.Expenses.Utilities'
I89
Nta(g5
I-89
Ntasg7
g27
sba(idoubletalk.transac
Transaction
(dp1825
g2
I972000000
sg3
(lp1826
(S'MyCo.Capital.PL.Expenses.Utilities'
I90
Nta(g5
I-90
Ntasg7
g27
sba(idoubletalk.transac
Transaction
(dp1827
g2
I972086400
sg3
(lp1828
(g63
F1762.5
Nta(g5
F-1762.5
Ntasg7
S'Bill paid - Contractor'
sba(idoubletalk.transac
Transaction
(dp1829
g2
I972345600
sg3
(lp1830
(S'MyCo.Capital.PL.Expenses.Labour'
I86
Nta(g5
I-86
Ntasg7
g27
sba(idoubletalk.transac
Transaction
(dp1831
g2
I972432000
sg3
(lp1832
(S'MyCo.Capital.PL.Expenses.Wages'
I3000
Nta(g5
I-3000
Ntasg7
S'Salary for Roger'
sba(idoubletalk.transac
Transaction
(dp1833
g2
I972432000
sg3
(lp1834
(S'MyCo.Capital.PL.Expenses.Wages'
I2000
Nta(g5
I-2000
Ntasg7
S'Salary for Simon'
sba(idoubletalk.transac
Transaction
(dp1835
g2
I972432000
sg3
(lp1836
(S'MyCo.Capital.PL.Expenses.Wages'
I1500
Nta(g5
I-1500
Ntasg7
S'Salary for Tim'
sba(idoubletalk.transac
Transaction
(dp1837
g2
I972432000
sg3
(lp1838
(S'MyCo.Capital.PL.Expenses.Wages'
I3000
Nta(g5
I-3000
Ntasg7
S'Salary for Andy'
sba(idoubletalk.transac
Transaction
(dp1839
g2
I972432000
sg3
(lp1840
(S'MyCo.Capital.PL.Expenses.Wages'
I3000
Nta(g5
I-3000
Ntasg7
S'Salary for Richard'
sba(idoubletalk.transac
Transaction
(dp1841
g2
I972432000
sg3
(lp1842
(S'MyCo.Capital.PL.Expenses.Contractors'
I1500
Nta(g19
F262.5
Nta(g63
F-1762.5
Ntasg7
S'Bill received - Contractor'
sba(idoubletalk.transac
Transaction
(dp1843
g2
I972604800
sg3
(lp1844
(S'MyCo.Capital.PL.Expenses.Labour'
I39
Nta(g5
I-39
Ntasg7
g27
sba(idoubletalk.transac
Transaction
(dp1845
g2
I972604800
sg3
(lp1846
(S'MyCo.Capital.PL.Expenses.Labour'
I59
Nta(g5
I-59
Ntasg7
g27
sba(idoubletalk.transac
Transaction
(dp1847
g2
I972691200
sg3
(lp1848
(g63
F1762.5
Nta(g5
F-1762.5
Ntasg7
S'Bill paid - Contractor'
sba(idoubletalk.transac
Transaction
(dp1849
g2
I972864000
sg3
(lp1850
(S'MyCo.Capital.PL.Expenses.Labour'
I83
Nta(g5
I-83
Ntasg7
g27
sba(idoubletalk.transac
Transaction
(dp1851
g2
I972864000
sg3
(lp1852
(S'MyCo.Capital.PL.Expenses.Rent'
I57
Nta(g5
I-57
Ntasg7
g27
sba(idoubletalk.transac
Transaction
(dp1853
g2
I973036800
sg3
(lp1854
(g5
F-461.44999999999999
Nta(g95
F446.38999999999999
Nta(g169
F15.06
Ntasg7
g170
sba(idoubletalk.transac
Transaction
(dp1855
g2
I973036800
sg3
(lp1856
(S'MyCo.Capital.PL.Expenses.Rent'
I1500
Nta(g11
I-1500
Ntasg7
g12
sba(idoubletalk.transac
Transaction
(dp1857
g2
I973036800
sg3
(lp1858
(g18
F382
Nta(g19
F66.849999999999994
Nta(g5
F-448.85000000000002
Ntasg7
g20
sba(idoubletalk.transac
Transaction
(dp1859
g2
I973036800
sg3
(lp1860
(g23
F1200
Nta(g19
F210
Nta(g5
F-1410
Ntasg7
g24
sba(idoubletalk.transac
Transaction
(dp1861
g2
I973036800
sg3
(lp1862
(S'MyCo.Capital.PL.Expenses.Contractors'
I1500
Nta(g19
F262.5
Nta(g63
F-1762.5
Ntasg7
S'Bill received - Contractor'
sba(idoubletalk.transac
Transaction
(dp1863
g2
I973036800
sg3
(lp1864
(S'MyCo.Capital.PL.Expenses.Utilities'
I64
Nta(g5
I-64
Ntasg7
g27
sba(idoubletalk.transac
Transaction
(dp1865
g2
I973209600
sg3
(lp1866
(S'MyCo.Capital.PL.Income.Software'
F-51784.07
Nta(g19
F-9062.2122499999987
Nta(g5
F60846.282249999997
Ntasg7
S'Cash Sale - Product Sales for month'
sba(idoubletalk.transac
Transaction
(dp1867
g2
I973209600
sg3
(lp1868
(S'MyCo.Capital.PL.Expenses.Stationery'
I70
Nta(g5
I-70
Ntasg7
g27
sba(idoubletalk.transac
Transaction
(dp1869
g2
I973296000
sg3
(lp1870
(g63
F1762.5
Nta(g5
F-1762.5
Ntasg7
S'Bill paid - Contractor'
sba(idoubletalk.transac
Transaction
(dp1871
g2
I973296000
sg3
(lp1872
(S'MyCo.Capital.PL.Expenses.Utilities'
I94
Nta(g5
I-94
Ntasg7
g27
sba(idoubletalk.transac
Transaction
(dp1873
g2
I973382400
sg3
(lp1874
(S'MyCo.Capital.PL.Expenses.Labour'
I53
Nta(g5
I-53
Ntasg7
g27
sba(idoubletalk.transac
Transaction
(dp1875
g2
I973382400
sg3
(lp1876
(S'MyCo.Capital.PL.Expenses.Utilities'
I8
Nta(g5
I-8
Ntasg7
g27
sba(idoubletalk.transac
Transaction
(dp1877
g2
I973382400
sg3
(lp1878
(S'MyCo.Capital.PL.Expenses.Utilities'
I90
Nta(g5
I-90
Ntasg7
g27
sba(idoubletalk.transac
Transaction
(dp1879
g2
I973468800
sg3
(lp1880
(S'MyCo.Capital.PL.Income.Consulting'
I-21600
Nta(g19
F-3779.9999999999995
Nta(g111
F25380
Ntasg7
S'Bill raised - Consulting to 3/11/2000'
sba(idoubletalk.transac
Transaction
(dp1881
g2
I973555200
sg3
(lp1882
(S'MyCo.Capital.PL.Expenses.Labour'
I17
Nta(g5
I-17
Ntasg7
g27
sba(idoubletalk.transac
Transaction
(dp1883
g2
I973555200
sg3
(lp1884
(S'MyCo.Capital.PL.Expenses.Stationery'
I59
Nta(g5
I-59
Ntasg7
g27
sba(idoubletalk.transac
Transaction
(dp1885
g2
I973641600
sg3
(lp1886
(S'MyCo.Capital.PL.Expenses.Contractors'
I1500
Nta(g19
F262.5
Nta(g63
F-1762.5
Ntasg7
S'Bill received - Contractor'
sba(idoubletalk.transac
Transaction
(dp1887
g2
I973641600
sg3
(lp1888
(S'MyCo.Capital.PL.Expenses.Utilities'
I87
Nta(g5
I-87
Ntasg7
g27
sba(idoubletalk.transac
Transaction
(dp1889
g2
I973814400
sg3
(lp1890
(g111
F-25380
Nta(g5
F25380
Ntasg7
S'Payment received - Consulting to 3/10/2000'
sba(idoubletalk.transac
Transaction
(dp1891
g2
I973814400
sg3
(lp1892
(S'MyCo.Capital.PL.Expenses.Travel'
I59
Nta(g5
I-59
Ntasg7
g27
sba(idoubletalk.transac
Transaction
(dp1893
g2
I973900800
sg3
(lp1894
(g63
F1762.5
Nta(g5
F-1762.5
Ntasg7
S'Bill paid - Contractor'
sba(idoubletalk.transac
Transaction
(dp1895
g2
I973987200
sg3
(lp1896
(S'MyCo.Capital.PL.Expenses.Travel'
I74
Nta(g5
I-74
Ntasg7
g27
sba(idoubletalk.transac
Transaction
(dp1897
g2
I974246400
sg3
(lp1898
(S'MyCo.Capital.PL.Expenses.Contractors'
I1500
Nta(g19
F262.5
Nta(g63
F-1762.5
Ntasg7
S'Bill received - Contractor'
sba(idoubletalk.transac
Transaction
(dp1899
g2
I974505600
sg3
(lp1900
(g63
F1762.5
Nta(g5
F-1762.5
Ntasg7
S'Bill paid - Contractor'
sba(idoubletalk.transac
Transaction
(dp1901
g2
I974592000
sg3
(lp1902
(S'MyCo.Capital.PL.Expenses.Stationery'
I15
Nta(g5
I-15
Ntasg7
g27
sba(idoubletalk.transac
Transaction
(dp1903
g2
I974851200
sg3
(lp1904
(S'MyCo.Capital.PL.Expenses.Contractors'
I1500
Nta(g19
F262.5
Nta(g63
F-1762.5
Ntasg7
S'Bill received - Contractor'
sba(idoubletalk.transac
Transaction
(dp1905
g2
I974851200
sg3
(lp1906
(S'MyCo.Capital.PL.Expenses.Utilities'
I90
Nta(g5
I-90
Ntasg7
g27
sba(idoubletalk.transac
Transaction
(dp1907
g2
I975024000
sg3
(lp1908
(S'MyCo.Capital.PL.Expenses.Rent'
I31
Nta(g5
I-31
Ntasg7
g27
sba(idoubletalk.transac
Transaction
(dp1909
g2
I975024000
sg3
(lp1910
(S'MyCo.Capital.PL.Expenses.Travel'
I17
Nta(g5
I-17
Ntasg7
g27
sba(idoubletalk.transac
Transaction
(dp1911
g2
I975024000
sg3
(lp1912
(S'MyCo.Capital.PL.Expenses.Rent'
I61
Nta(g5
I-61
Ntasg7
g27
sba(idoubletalk.transac
Transaction
(dp1913
g2
I975110400
sg3
(lp1914
(S'MyCo.Capital.PL.Expenses.Wages'
I3000
Nta(g5
I-3000
Ntasg7
S'Salary for Roger'
sba(idoubletalk.transac
Transaction
(dp1915
g2
I975110400
sg3
(lp1916
(S'MyCo.Capital.PL.Expenses.Wages'
I2000
Nta(g5
I-2000
Ntasg7
S'Salary for Simon'
sba(idoubletalk.transac
Transaction
(dp1917
g2
I975110400
sg3
(lp1918
(S'MyCo.Capital.PL.Expenses.Wages'
I1500
Nta(g5
I-1500
Ntasg7
S'Salary for Tim'
sba(idoubletalk.transac
Transaction
(dp1919
g2
I975110400
sg3
(lp1920
(S'MyCo.Capital.PL.Expenses.Wages'
I3000
Nta(g5
I-3000
Ntasg7
S'Salary for Andy'
sba(idoubletalk.transac
Transaction
(dp1921
g2
I975110400
sg3
(lp1922
(S'MyCo.Capital.PL.Expenses.Wages'
I3000
Nta(g5
I-3000
Ntasg7
S'Salary for Richard'
sba(idoubletalk.transac
Transaction
(dp1923
g2
I975110400
sg3
(lp1924
(g63
F1762.5
Nta(g5
F-1762.5
Ntasg7
S'Bill paid - Contractor'
sba(idoubletalk.transac
Transaction
(dp1925
g2
I975196800
sg3
(lp1926
(S'MyCo.Capital.PL.Expenses.Utilities'
I18
Nta(g5
I-18
Ntasg7
g27
sba(idoubletalk.transac
Transaction
(dp1927
g2
I975456000
sg3
(lp1928
(S'MyCo.Capital.PL.Expenses.Contractors'
I1500
Nta(g19
F262.5
Nta(g63
F-1762.5
Ntasg7
S'Bill received - Contractor'
sba(idoubletalk.transac
Transaction
(dp1929
g2
I975456000
sg3
(lp1930
(S'MyCo.Capital.PL.Expenses.Utilities'
I83
Nta(g5
I-83
Ntasg7
g27
sba(idoubletalk.transac
Transaction
(dp1931
g2
I975628800
sg3
(lp1932
(g5
F-461.44999999999999
Nta(g95
F450.11000000000001
Nta(g169
F11.34
Ntasg7
g170
sba(idoubletalk.transac
Transaction
(dp1933
g2
I975628800
sg3
(lp1934
(S'MyCo.Capital.PL.Expenses.Rent'
I1500
Nta(g11
I-1500
Ntasg7
g12
sba(idoubletalk.transac
Transaction
(dp1935
g2
I975628800
sg3
(lp1936
(g18
F454
Nta(g19
F79.449999999999989
Nta(g5
F-533.45000000000005
Ntasg7
g20
sba(idoubletalk.transac
Transaction
(dp1937
g2
I975628800
sg3
(lp1938
(g23
F1200
Nta(g19
F210
Nta(g5
F-1410
Ntasg7
g24
sba(idoubletalk.transac
Transaction
(dp1939
g2
I975715200
sg3
(lp1940
(g63
F1762.5
Nta(g5
F-1762.5
Ntasg7
S'Bill paid - Contractor'
sba(idoubletalk.transac
Transaction
(dp1941
g2
I975715200
sg3
(lp1942
(S'MyCo.Capital.PL.Expenses.Utilities'
I29
Nta(g5
I-29
Ntasg7
g27
sba(idoubletalk.transac
Transaction
(dp1943
g2
I975801600
sg3
(lp1944
(S'MyCo.Capital.PL.Income.Software'
F-56962.480000000003
Nta(g19
F-9968.4339999999993
Nta(g5
F66930.914000000004
Ntasg7
S'Cash Sale - Product Sales for month'
sba(idoubletalk.transac
Transaction
(dp1945
g2
I975801600
sg3
(lp1946
(S'MyCo.Capital.PL.Expenses.Utilities'
I30
Nta(g5
I-30
Ntasg7
g27
sba(idoubletalk.transac
Transaction
(dp1947
g2
I975888000
sg3
(lp1948
(S'MyCo.Capital.PL.Expenses.Travel'
I64
Nta(g5
I-64
Ntasg7
g27
sba(idoubletalk.transac
Transaction
(dp1949
g2
I976060800
sg3
(lp1950
(S'MyCo.Capital.PL.Expenses.Contractors'
I1500
Nta(g19
F262.5
Nta(g63
F-1762.5
Ntasg7
S'Bill received - Contractor'
sba(idoubletalk.transac
Transaction
(dp1951
g2
I976060800
sg3
(lp1952
(S'MyCo.Capital.PL.Income.Consulting'
I-21600
Nta(g19
F-3779.9999999999995
Nta(g111
F25380
Ntasg7
S'Bill raised - Consulting to 3/12/2000'
sba(idoubletalk.transac
Transaction
(dp1953
g2
I976060800
sg3
(lp1954
(S'MyCo.Capital.PL.Expenses.Utilities'
I45
Nta(g5
I-45
Ntasg7
g27
sba(idoubletalk.transac
Transaction
(dp1955
g2
I976233600
sg3
(lp1956
(S'MyCo.Capital.PL.Expenses.Rent'
I39
Nta(g5
I-39
Ntasg7
g27
sba(idoubletalk.transac
Transaction
(dp1957
g2
I976320000
sg3
(lp1958
(g63
F1762.5
Nta(g5
F-1762.5
Ntasg7
S'Bill paid - Contractor'
sba(idoubletalk.transac
Transaction
(dp1959
g2
I976406400
sg3
(lp1960
(S'MyCo.Capital.PL.Expenses.Rent'
I18
Nta(g5
I-18
Ntasg7
g27
sba(idoubletalk.transac
Transaction
(dp1961
g2
I976406400
sg3
(lp1962
(S'MyCo.Capital.PL.Expenses.Labour'
I19
Nta(g5
I-19
Ntasg7
g27
sba(idoubletalk.transac
Transaction
(dp1963
g2
I976406400
sg3
(lp1964
(S'MyCo.Capital.PL.Expenses.Rent'
I20
Nta(g5
I-20
Ntasg7
g27
sba(idoubletalk.transac
Transaction
(dp1965
g2
I976492800
sg3
(lp1966
(g111
F-25380
Nta(g5
F25380
Ntasg7
S'Payment received - Consulting to 3/11/2000'
sba(idoubletalk.transac
Transaction
(dp1967
g2
I976492800
sg3
(lp1968
(S'MyCo.Capital.PL.Expenses.Labour'
I27
Nta(g5
I-27
Ntasg7
g27
sba(idoubletalk.transac
Transaction
(dp1969
g2
I976665600
sg3
(lp1970
(S'MyCo.Capital.PL.Expenses.Contractors'
I1500
Nta(g19
F262.5
Nta(g63
F-1762.5
Ntasg7
S'Bill received - Contractor'
sba(idoubletalk.transac
Transaction
(dp1971
g2
I976665600
sg3
(lp1972
(S'MyCo.Capital.PL.Expenses.Stationery'
I56
Nta(g5
I-56
Ntasg7
g27
sba(idoubletalk.transac
Transaction
(dp1973
g2
I976665600
sg3
(lp1974
(S'MyCo.Capital.PL.Expenses.Rent'
I71
Nta(g5
I-71
Ntasg7
g27
sba(idoubletalk.transac
Transaction
(dp1975
g2
I976665600
sg3
(lp1976
(S'MyCo.Capital.PL.Expenses.Rent'
I88
Nta(g5
I-88
Ntasg7
g27
sba(idoubletalk.transac
Transaction
(dp1977
g2
I976924800
sg3
(lp1978
(g63
F1762.5
Nta(g5
F-1762.5
Ntasg7
S'Bill paid - Contractor'
sba(idoubletalk.transac
Transaction
(dp1979
g2
I976924800
sg3
(lp1980
(S'MyCo.Capital.PL.Expenses.Rent'
I31
Nta(g5
I-31
Ntasg7
g27
sba(idoubletalk.transac
Transaction
(dp1981
g2
I977184000
sg3
(lp1982
(S'MyCo.Capital.PL.Expenses.Rent'
I23
Nta(g5
I-23
Ntasg7
g27
sba(idoubletalk.transac
Transaction
(dp1983
g2
I977184000
sg3
(lp1984
(S'MyCo.Capital.PL.Expenses.Labour'
I6
Nta(g5
I-6
Ntasg7
g27
sba(idoubletalk.transac
Transaction
(dp1985
g2
I977270400
sg3
(lp1986
(S'MyCo.Capital.PL.Expenses.Contractors'
I1500
Nta(g19
F262.5
Nta(g63
F-1762.5
Ntasg7
S'Bill received - Contractor'
sba(idoubletalk.transac
Transaction
(dp1987
g2
I977443200
sg3
(lp1988
(S'MyCo.Capital.PL.Expenses.Rent'
I9
Nta(g5
I-9
Ntasg7
g27
sba(idoubletalk.transac
Transaction
(dp1989
g2
I977529600
sg3
(lp1990
(g63
F1762.5
Nta(g5
F-1762.5
Ntasg7
S'Bill paid - Contractor'
sba(idoubletalk.transac
Transaction
(dp1991
g2
I977616000
sg3
(lp1992
(S'MyCo.Capital.PL.Expenses.Rent'
I60
Nta(g5
I-60
Ntasg7
g27
sba(idoubletalk.transac
Transaction
(dp1993
g2
I977702400
sg3
(lp1994
(S'MyCo.Capital.PL.Expenses.Wages'
I3000
Nta(g5
I-3000
Ntasg7
S'Salary for Roger'
sba(idoubletalk.transac
Transaction
(dp1995
g2
I977702400
sg3
(lp1996
(S'MyCo.Capital.PL.Expenses.Wages'
I2000
Nta(g5
I-2000
Ntasg7
S'Salary for Simon'
sba(idoubletalk.transac
Transaction
(dp1997
g2
I977702400
sg3
(lp1998
(S'MyCo.Capital.PL.Expenses.Wages'
I1500
Nta(g5
I-1500
Ntasg7
S'Salary for Tim'
sba(idoubletalk.transac
Transaction
(dp1999
g2
I977702400
sg3
(lp2000
(S'MyCo.Capital.PL.Expenses.Wages'
I3000
Nta(g5
I-3000
Ntasg7
S'Salary for Andy'
sba(idoubletalk.transac
Transaction
(dp2001
g2
I977702400
sg3
(lp2002
(S'MyCo.Capital.PL.Expenses.Wages'
I3000
Nta(g5
I-3000
Ntasg7
S'Salary for Richard'
sba(idoubletalk.transac
Transaction
(dp2003
g2
I977702400
sg3
(lp2004
(S'MyCo.Capital.PL.Expenses.Labour'
I53
Nta(g5
I-53
Ntasg7
g27
sba(idoubletalk.transac
Transaction
(dp2005
g2
I977875200
sg3
(lp2006
(S'MyCo.Capital.PL.Expenses.Contractors'
I1500
Nta(g19
F262.5
Nta(g63
F-1762.5
Ntasg7
S'Bill received - Contractor'
sba(idoubletalk.transac
Transaction
(dp2007
g2
I977875200
sg3
(lp2008
(S'MyCo.Capital.PL.Expenses.Travel'
I91
Nta(g5
I-91
Ntasg7
g27
sba(idoubletalk.transac
Transaction
(dp2009
g2
I978134400
sg3
(lp2010
(g63
F1762.5
Nta(g5
F-1762.5
Ntasg7
S'Bill paid - Contractor'
sba(idoubletalk.transac
Transaction
(dp2011
g2
I978307200
sg3
(lp2012
(g5
F-461.44999999999999
Nta(g95
F453.86000000000001
Nta(g169
F7.5899999999999999
Ntasg7
g170
sba(idoubletalk.transac
Transaction
(dp2013
g2
I978480000
sg3
(lp2014
(S'MyCo.Capital.PL.Income.Software'
F-62658.722500000003
Nta(g19
F-10965.276437500001
Nta(g5
F73623.9989375
Ntasg7
S'Cash Sale - Product Sales for month'
sba(idoubletalk.transac
Transaction
(dp2015
g2
I978739200
sg3
(lp2016
(g63
F1762.5
Nta(g5
F-1762.5
Ntasg7
S'Bill paid - Contractor'
sba(idoubletalk.transac
Transaction
(dp2017
g2
I978739200
sg3
(lp2018
(S'MyCo.Capital.PL.Income.Consulting'
I-21600
Nta(g19
F-3779.9999999999995
Nta(g111
F25380
Ntasg7
S'Bill raised - Consulting to 3/1/2001'
sba(idoubletalk.transac
Transaction
(dp2019
g2
I979084800
sg3
(lp2020
(g111
F-25380
Nta(g5
F25380
Ntasg7
S'Payment received - Consulting to 3/12/2000'
sba(idoubletalk.transac
Transaction
(dp2021
g2
I980985600
sg3
(lp2022
(g5
F-457.49999999999795
Nta(g95
F457.49999999999795
Ntasg7
S'Final loan repayment'
p2023
sba(idoubletalk.transac
Transaction
(dp2024
g2
I981763200
sg3
(lp2025
(g111
F-25380
Nta(g5
F25380
Ntasg7
S'Payment received - Consulting to 3/1/2001'
sba.